
build/zephyr/zephyr.elf:     file format elf32-littlearm


Disassembly of section rom_start:

08000000 <_vector_table>:
 8000000:	80 22 00 24 3d 2c 00 08 51 27 00 08 29 2c 00 08     .".$=,..Q'..),..
 8000010:	29 2c 00 08 29 2c 00 08 29 2c 00 08 00 00 00 00     ),..),..),......
	...
 800002c:	31 2d 00 08 29 2c 00 08 00 00 00 00 95 2c 00 08     1-..),.......,..
 800003c:	2d 3f 00 08                                         -?..

08000040 <_irq_vector_table>:
 8000040:	71 2f 00 08 71 2f 00 08 71 2f 00 08 71 2f 00 08     q/..q/..q/..q/..
 8000050:	71 2f 00 08 71 2f 00 08 71 2f 00 08 71 2f 00 08     q/..q/..q/..q/..
 8000060:	71 2f 00 08 71 2f 00 08 71 2f 00 08 71 2f 00 08     q/..q/..q/..q/..
 8000070:	71 2f 00 08 71 2f 00 08 71 2f 00 08 71 2f 00 08     q/..q/..q/..q/..
 8000080:	71 2f 00 08 71 2f 00 08 71 2f 00 08 71 2f 00 08     q/..q/..q/..q/..
 8000090:	71 2f 00 08 71 2f 00 08 71 2f 00 08 71 2f 00 08     q/..q/..q/..q/..
 80000a0:	71 2f 00 08 71 2f 00 08 71 2f 00 08 71 2f 00 08     q/..q/..q/..q/..
 80000b0:	71 2f 00 08 71 2f 00 08 71 2f 00 08 71 2f 00 08     q/..q/..q/..q/..
 80000c0:	71 2f 00 08 71 2f 00 08 71 2f 00 08 71 2f 00 08     q/..q/..q/..q/..
 80000d0:	71 2f 00 08 71 2f 00 08 71 2f 00 08 71 2f 00 08     q/..q/..q/..q/..
 80000e0:	71 2f 00 08 71 2f 00 08 71 2f 00 08 71 2f 00 08     q/..q/..q/..q/..
 80000f0:	71 2f 00 08 71 2f 00 08 71 2f 00 08 71 2f 00 08     q/..q/..q/..q/..
 8000100:	71 2f 00 08 71 2f 00 08 71 2f 00 08 71 2f 00 08     q/..q/..q/..q/..
 8000110:	71 2f 00 08 71 2f 00 08 71 2f 00 08 71 2f 00 08     q/..q/..q/..q/..
 8000120:	71 2f 00 08 71 2f 00 08 71 2f 00 08 71 2f 00 08     q/..q/..q/..q/..
 8000130:	71 2f 00 08 71 2f 00 08 71 2f 00 08 71 2f 00 08     q/..q/..q/..q/..
 8000140:	71 2f 00 08 71 2f 00 08 71 2f 00 08 71 2f 00 08     q/..q/..q/..q/..
 8000150:	71 2f 00 08 71 2f 00 08 71 2f 00 08 71 2f 00 08     q/..q/..q/..q/..
 8000160:	71 2f 00 08 71 2f 00 08 71 2f 00 08 71 2f 00 08     q/..q/..q/..q/..
 8000170:	71 2f 00 08 71 2f 00 08 71 2f 00 08 71 2f 00 08     q/..q/..q/..q/..
 8000180:	71 2f 00 08 71 2f 00 08 71 2f 00 08 71 2f 00 08     q/..q/..q/..q/..
 8000190:	71 2f 00 08 71 2f 00 08 71 2f 00 08 71 2f 00 08     q/..q/..q/..q/..
 80001a0:	71 2f 00 08 71 2f 00 08 71 2f 00 08 71 2f 00 08     q/..q/..q/..q/..
 80001b0:	71 2f 00 08 71 2f 00 08 71 2f 00 08 71 2f 00 08     q/..q/..q/..q/..
 80001c0:	71 2f 00 08 71 2f 00 08 71 2f 00 08 71 2f 00 08     q/..q/..q/..q/..
 80001d0:	71 2f 00 08 71 2f 00 08 71 2f 00 08 71 2f 00 08     q/..q/..q/..q/..
 80001e0:	71 2f 00 08 71 2f 00 08 71 2f 00 08 71 2f 00 08     q/..q/..q/..q/..
 80001f0:	71 2f 00 08 71 2f 00 08 71 2f 00 08 71 2f 00 08     q/..q/..q/..q/..
 8000200:	71 2f 00 08 71 2f 00 08 71 2f 00 08 71 2f 00 08     q/..q/..q/..q/..
 8000210:	71 2f 00 08 71 2f 00 08 71 2f 00 08 71 2f 00 08     q/..q/..q/..q/..
 8000220:	71 2f 00 08 71 2f 00 08 71 2f 00 08 71 2f 00 08     q/..q/..q/..q/..
 8000230:	71 2f 00 08 71 2f 00 08 71 2f 00 08 71 2f 00 08     q/..q/..q/..q/..
 8000240:	71 2f 00 08 71 2f 00 08 71 2f 00 08 71 2f 00 08     q/..q/..q/..q/..
 8000250:	71 2f 00 08 71 2f 00 08 71 2f 00 08 71 2f 00 08     q/..q/..q/..q/..
 8000260:	71 2f 00 08 71 2f 00 08 71 2f 00 08 71 2f 00 08     q/..q/..q/..q/..
 8000270:	71 2f 00 08 71 2f 00 08 71 2f 00 08 71 2f 00 08     q/..q/..q/..q/..
 8000280:	71 2f 00 08 71 2f 00 08 71 2f 00 08 71 2f 00 08     q/..q/..q/..q/..
 8000290:	71 2f 00 08 71 2f 00 08 71 2f 00 08 71 2f 00 08     q/..q/..q/..q/..
 80002a0:	71 2f 00 08 71 2f 00 08 71 2f 00 08 71 2f 00 08     q/..q/..q/..q/..
 80002b0:	71 2f 00 08 71 2f 00 08 71 2f 00 08 71 2f 00 08     q/..q/..q/..q/..
 80002c0:	71 2f 00 08 71 2f 00 08 71 2f 00 08                 q/..q/..q/..

Disassembly of section text:

080002cc <__aeabi_uldivmod>:
 80002cc:	b953      	cbnz	r3, 80002e4 <__aeabi_uldivmod+0x18>
 80002ce:	b94a      	cbnz	r2, 80002e4 <__aeabi_uldivmod+0x18>
 80002d0:	2900      	cmp	r1, #0
 80002d2:	bf08      	it	eq
 80002d4:	2800      	cmpeq	r0, #0
 80002d6:	bf1c      	itt	ne
 80002d8:	f04f 31ff 	movne.w	r1, #4294967295	; 0xffffffff
 80002dc:	f04f 30ff 	movne.w	r0, #4294967295	; 0xffffffff
 80002e0:	f000 b80c 	b.w	80002fc <__aeabi_idiv0>
 80002e4:	f1ad 0c08 	sub.w	ip, sp, #8
 80002e8:	e96d ce04 	strd	ip, lr, [sp, #-16]!
 80002ec:	f000 f810 	bl	8000310 <__udivmoddi4>
 80002f0:	f8dd e004 	ldr.w	lr, [sp, #4]
 80002f4:	e9dd 2302 	ldrd	r2, r3, [sp, #8]
 80002f8:	b004      	add	sp, #16
 80002fa:	4770      	bx	lr

080002fc <__aeabi_idiv0>:
 80002fc:	4770      	bx	lr
 80002fe:	bf00      	nop

08000300 <strlen>:
 8000300:	4603      	mov	r3, r0
 8000302:	f813 2b01 	ldrb.w	r2, [r3], #1
 8000306:	2a00      	cmp	r2, #0
 8000308:	d1fb      	bne.n	8000302 <strlen+0x2>
 800030a:	1a18      	subs	r0, r3, r0
 800030c:	3801      	subs	r0, #1
 800030e:	4770      	bx	lr

08000310 <__udivmoddi4>:
 8000310:	e92d 47f0 	stmdb	sp!, {r4, r5, r6, r7, r8, r9, sl, lr}
 8000314:	4686      	mov	lr, r0
 8000316:	468c      	mov	ip, r1
 8000318:	4608      	mov	r0, r1
 800031a:	9e08      	ldr	r6, [sp, #32]
 800031c:	4615      	mov	r5, r2
 800031e:	4674      	mov	r4, lr
 8000320:	4619      	mov	r1, r3
 8000322:	2b00      	cmp	r3, #0
 8000324:	f040 80c2 	bne.w	80004ac <__udivmoddi4+0x19c>
 8000328:	4285      	cmp	r5, r0
 800032a:	fab2 f282 	clz	r2, r2
 800032e:	d945      	bls.n	80003bc <__udivmoddi4+0xac>
 8000330:	b14a      	cbz	r2, 8000346 <__udivmoddi4+0x36>
 8000332:	f1c2 0320 	rsb	r3, r2, #32
 8000336:	fa00 fc02 	lsl.w	ip, r0, r2
 800033a:	fa2e f303 	lsr.w	r3, lr, r3
 800033e:	4095      	lsls	r5, r2
 8000340:	ea43 0c0c 	orr.w	ip, r3, ip
 8000344:	4094      	lsls	r4, r2
 8000346:	ea4f 4e15 	mov.w	lr, r5, lsr #16
 800034a:	b2a8      	uxth	r0, r5
 800034c:	fbbc f8fe 	udiv	r8, ip, lr
 8000350:	0c23      	lsrs	r3, r4, #16
 8000352:	fb0e cc18 	mls	ip, lr, r8, ip
 8000356:	fb08 f900 	mul.w	r9, r8, r0
 800035a:	ea43 430c 	orr.w	r3, r3, ip, lsl #16
 800035e:	4599      	cmp	r9, r3
 8000360:	d928      	bls.n	80003b4 <__udivmoddi4+0xa4>
 8000362:	18eb      	adds	r3, r5, r3
 8000364:	f108 37ff 	add.w	r7, r8, #4294967295	; 0xffffffff
 8000368:	d204      	bcs.n	8000374 <__udivmoddi4+0x64>
 800036a:	4599      	cmp	r9, r3
 800036c:	d902      	bls.n	8000374 <__udivmoddi4+0x64>
 800036e:	f1a8 0702 	sub.w	r7, r8, #2
 8000372:	442b      	add	r3, r5
 8000374:	eba3 0309 	sub.w	r3, r3, r9
 8000378:	b2a4      	uxth	r4, r4
 800037a:	fbb3 fcfe 	udiv	ip, r3, lr
 800037e:	fb0e 331c 	mls	r3, lr, ip, r3
 8000382:	fb0c f000 	mul.w	r0, ip, r0
 8000386:	ea44 4403 	orr.w	r4, r4, r3, lsl #16
 800038a:	42a0      	cmp	r0, r4
 800038c:	d914      	bls.n	80003b8 <__udivmoddi4+0xa8>
 800038e:	192c      	adds	r4, r5, r4
 8000390:	f10c 33ff 	add.w	r3, ip, #4294967295	; 0xffffffff
 8000394:	d204      	bcs.n	80003a0 <__udivmoddi4+0x90>
 8000396:	42a0      	cmp	r0, r4
 8000398:	d902      	bls.n	80003a0 <__udivmoddi4+0x90>
 800039a:	f1ac 0302 	sub.w	r3, ip, #2
 800039e:	442c      	add	r4, r5
 80003a0:	1a24      	subs	r4, r4, r0
 80003a2:	ea43 4007 	orr.w	r0, r3, r7, lsl #16
 80003a6:	b11e      	cbz	r6, 80003b0 <__udivmoddi4+0xa0>
 80003a8:	40d4      	lsrs	r4, r2
 80003aa:	2300      	movs	r3, #0
 80003ac:	6034      	str	r4, [r6, #0]
 80003ae:	6073      	str	r3, [r6, #4]
 80003b0:	e8bd 87f0 	ldmia.w	sp!, {r4, r5, r6, r7, r8, r9, sl, pc}
 80003b4:	4647      	mov	r7, r8
 80003b6:	e7dd      	b.n	8000374 <__udivmoddi4+0x64>
 80003b8:	4663      	mov	r3, ip
 80003ba:	e7f1      	b.n	80003a0 <__udivmoddi4+0x90>
 80003bc:	bb92      	cbnz	r2, 8000424 <__udivmoddi4+0x114>
 80003be:	1b43      	subs	r3, r0, r5
 80003c0:	2101      	movs	r1, #1
 80003c2:	ea4f 4e15 	mov.w	lr, r5, lsr #16
 80003c6:	b2af      	uxth	r7, r5
 80003c8:	fbb3 fcfe 	udiv	ip, r3, lr
 80003cc:	0c20      	lsrs	r0, r4, #16
 80003ce:	fb0e 331c 	mls	r3, lr, ip, r3
 80003d2:	fb0c f807 	mul.w	r8, ip, r7
 80003d6:	ea40 4303 	orr.w	r3, r0, r3, lsl #16
 80003da:	4598      	cmp	r8, r3
 80003dc:	d962      	bls.n	80004a4 <__udivmoddi4+0x194>
 80003de:	18eb      	adds	r3, r5, r3
 80003e0:	f10c 30ff 	add.w	r0, ip, #4294967295	; 0xffffffff
 80003e4:	d204      	bcs.n	80003f0 <__udivmoddi4+0xe0>
 80003e6:	4598      	cmp	r8, r3
 80003e8:	d902      	bls.n	80003f0 <__udivmoddi4+0xe0>
 80003ea:	f1ac 0002 	sub.w	r0, ip, #2
 80003ee:	442b      	add	r3, r5
 80003f0:	eba3 0308 	sub.w	r3, r3, r8
 80003f4:	b2a4      	uxth	r4, r4
 80003f6:	fbb3 fcfe 	udiv	ip, r3, lr
 80003fa:	fb0e 331c 	mls	r3, lr, ip, r3
 80003fe:	fb0c f707 	mul.w	r7, ip, r7
 8000402:	ea44 4403 	orr.w	r4, r4, r3, lsl #16
 8000406:	42a7      	cmp	r7, r4
 8000408:	d94e      	bls.n	80004a8 <__udivmoddi4+0x198>
 800040a:	192c      	adds	r4, r5, r4
 800040c:	f10c 33ff 	add.w	r3, ip, #4294967295	; 0xffffffff
 8000410:	d204      	bcs.n	800041c <__udivmoddi4+0x10c>
 8000412:	42a7      	cmp	r7, r4
 8000414:	d902      	bls.n	800041c <__udivmoddi4+0x10c>
 8000416:	f1ac 0302 	sub.w	r3, ip, #2
 800041a:	442c      	add	r4, r5
 800041c:	1be4      	subs	r4, r4, r7
 800041e:	ea43 4000 	orr.w	r0, r3, r0, lsl #16
 8000422:	e7c0      	b.n	80003a6 <__udivmoddi4+0x96>
 8000424:	f1c2 0320 	rsb	r3, r2, #32
 8000428:	fa20 f103 	lsr.w	r1, r0, r3
 800042c:	4095      	lsls	r5, r2
 800042e:	4090      	lsls	r0, r2
 8000430:	fa2e f303 	lsr.w	r3, lr, r3
 8000434:	4303      	orrs	r3, r0
 8000436:	ea4f 4e15 	mov.w	lr, r5, lsr #16
 800043a:	b2af      	uxth	r7, r5
 800043c:	fbb1 fcfe 	udiv	ip, r1, lr
 8000440:	fb0e 101c 	mls	r0, lr, ip, r1
 8000444:	0c19      	lsrs	r1, r3, #16
 8000446:	fb0c f807 	mul.w	r8, ip, r7
 800044a:	ea41 4100 	orr.w	r1, r1, r0, lsl #16
 800044e:	4588      	cmp	r8, r1
 8000450:	fa04 f402 	lsl.w	r4, r4, r2
 8000454:	d922      	bls.n	800049c <__udivmoddi4+0x18c>
 8000456:	1869      	adds	r1, r5, r1
 8000458:	f10c 30ff 	add.w	r0, ip, #4294967295	; 0xffffffff
 800045c:	d204      	bcs.n	8000468 <__udivmoddi4+0x158>
 800045e:	4588      	cmp	r8, r1
 8000460:	d902      	bls.n	8000468 <__udivmoddi4+0x158>
 8000462:	f1ac 0002 	sub.w	r0, ip, #2
 8000466:	4429      	add	r1, r5
 8000468:	eba1 0108 	sub.w	r1, r1, r8
 800046c:	b29b      	uxth	r3, r3
 800046e:	fbb1 fcfe 	udiv	ip, r1, lr
 8000472:	fb0e 111c 	mls	r1, lr, ip, r1
 8000476:	fb0c f707 	mul.w	r7, ip, r7
 800047a:	ea43 4301 	orr.w	r3, r3, r1, lsl #16
 800047e:	429f      	cmp	r7, r3
 8000480:	d90e      	bls.n	80004a0 <__udivmoddi4+0x190>
 8000482:	18eb      	adds	r3, r5, r3
 8000484:	f10c 31ff 	add.w	r1, ip, #4294967295	; 0xffffffff
 8000488:	d204      	bcs.n	8000494 <__udivmoddi4+0x184>
 800048a:	429f      	cmp	r7, r3
 800048c:	d902      	bls.n	8000494 <__udivmoddi4+0x184>
 800048e:	f1ac 0102 	sub.w	r1, ip, #2
 8000492:	442b      	add	r3, r5
 8000494:	1bdb      	subs	r3, r3, r7
 8000496:	ea41 4100 	orr.w	r1, r1, r0, lsl #16
 800049a:	e792      	b.n	80003c2 <__udivmoddi4+0xb2>
 800049c:	4660      	mov	r0, ip
 800049e:	e7e3      	b.n	8000468 <__udivmoddi4+0x158>
 80004a0:	4661      	mov	r1, ip
 80004a2:	e7f7      	b.n	8000494 <__udivmoddi4+0x184>
 80004a4:	4660      	mov	r0, ip
 80004a6:	e7a3      	b.n	80003f0 <__udivmoddi4+0xe0>
 80004a8:	4663      	mov	r3, ip
 80004aa:	e7b7      	b.n	800041c <__udivmoddi4+0x10c>
 80004ac:	4283      	cmp	r3, r0
 80004ae:	d906      	bls.n	80004be <__udivmoddi4+0x1ae>
 80004b0:	b916      	cbnz	r6, 80004b8 <__udivmoddi4+0x1a8>
 80004b2:	2100      	movs	r1, #0
 80004b4:	4608      	mov	r0, r1
 80004b6:	e77b      	b.n	80003b0 <__udivmoddi4+0xa0>
 80004b8:	e9c6 e000 	strd	lr, r0, [r6]
 80004bc:	e7f9      	b.n	80004b2 <__udivmoddi4+0x1a2>
 80004be:	fab3 f783 	clz	r7, r3
 80004c2:	b98f      	cbnz	r7, 80004e8 <__udivmoddi4+0x1d8>
 80004c4:	4283      	cmp	r3, r0
 80004c6:	d301      	bcc.n	80004cc <__udivmoddi4+0x1bc>
 80004c8:	4572      	cmp	r2, lr
 80004ca:	d808      	bhi.n	80004de <__udivmoddi4+0x1ce>
 80004cc:	ebbe 0402 	subs.w	r4, lr, r2
 80004d0:	eb60 0303 	sbc.w	r3, r0, r3
 80004d4:	2001      	movs	r0, #1
 80004d6:	469c      	mov	ip, r3
 80004d8:	b91e      	cbnz	r6, 80004e2 <__udivmoddi4+0x1d2>
 80004da:	2100      	movs	r1, #0
 80004dc:	e768      	b.n	80003b0 <__udivmoddi4+0xa0>
 80004de:	4638      	mov	r0, r7
 80004e0:	e7fa      	b.n	80004d8 <__udivmoddi4+0x1c8>
 80004e2:	e9c6 4c00 	strd	r4, ip, [r6]
 80004e6:	e7f8      	b.n	80004da <__udivmoddi4+0x1ca>
 80004e8:	f1c7 0c20 	rsb	ip, r7, #32
 80004ec:	40bb      	lsls	r3, r7
 80004ee:	fa22 f40c 	lsr.w	r4, r2, ip
 80004f2:	431c      	orrs	r4, r3
 80004f4:	fa2e f10c 	lsr.w	r1, lr, ip
 80004f8:	fa20 f30c 	lsr.w	r3, r0, ip
 80004fc:	40b8      	lsls	r0, r7
 80004fe:	4301      	orrs	r1, r0
 8000500:	ea4f 4914 	mov.w	r9, r4, lsr #16
 8000504:	fa0e f507 	lsl.w	r5, lr, r7
 8000508:	fbb3 f8f9 	udiv	r8, r3, r9
 800050c:	fa1f fe84 	uxth.w	lr, r4
 8000510:	fb09 3018 	mls	r0, r9, r8, r3
 8000514:	0c0b      	lsrs	r3, r1, #16
 8000516:	fb08 fa0e 	mul.w	sl, r8, lr
 800051a:	ea43 4300 	orr.w	r3, r3, r0, lsl #16
 800051e:	459a      	cmp	sl, r3
 8000520:	fa02 f207 	lsl.w	r2, r2, r7
 8000524:	d940      	bls.n	80005a8 <__udivmoddi4+0x298>
 8000526:	18e3      	adds	r3, r4, r3
 8000528:	f108 30ff 	add.w	r0, r8, #4294967295	; 0xffffffff
 800052c:	d204      	bcs.n	8000538 <__udivmoddi4+0x228>
 800052e:	459a      	cmp	sl, r3
 8000530:	d902      	bls.n	8000538 <__udivmoddi4+0x228>
 8000532:	f1a8 0002 	sub.w	r0, r8, #2
 8000536:	4423      	add	r3, r4
 8000538:	eba3 030a 	sub.w	r3, r3, sl
 800053c:	b289      	uxth	r1, r1
 800053e:	fbb3 f8f9 	udiv	r8, r3, r9
 8000542:	fb09 3318 	mls	r3, r9, r8, r3
 8000546:	fb08 fe0e 	mul.w	lr, r8, lr
 800054a:	ea41 4103 	orr.w	r1, r1, r3, lsl #16
 800054e:	458e      	cmp	lr, r1
 8000550:	d92c      	bls.n	80005ac <__udivmoddi4+0x29c>
 8000552:	1861      	adds	r1, r4, r1
 8000554:	f108 33ff 	add.w	r3, r8, #4294967295	; 0xffffffff
 8000558:	d204      	bcs.n	8000564 <__udivmoddi4+0x254>
 800055a:	458e      	cmp	lr, r1
 800055c:	d902      	bls.n	8000564 <__udivmoddi4+0x254>
 800055e:	f1a8 0302 	sub.w	r3, r8, #2
 8000562:	4421      	add	r1, r4
 8000564:	ea43 4000 	orr.w	r0, r3, r0, lsl #16
 8000568:	fba0 9802 	umull	r9, r8, r0, r2
 800056c:	eba1 010e 	sub.w	r1, r1, lr
 8000570:	4541      	cmp	r1, r8
 8000572:	46ce      	mov	lr, r9
 8000574:	4643      	mov	r3, r8
 8000576:	d302      	bcc.n	800057e <__udivmoddi4+0x26e>
 8000578:	d106      	bne.n	8000588 <__udivmoddi4+0x278>
 800057a:	454d      	cmp	r5, r9
 800057c:	d204      	bcs.n	8000588 <__udivmoddi4+0x278>
 800057e:	ebb9 0e02 	subs.w	lr, r9, r2
 8000582:	eb68 0304 	sbc.w	r3, r8, r4
 8000586:	3801      	subs	r0, #1
 8000588:	2e00      	cmp	r6, #0
 800058a:	d0a6      	beq.n	80004da <__udivmoddi4+0x1ca>
 800058c:	ebb5 020e 	subs.w	r2, r5, lr
 8000590:	eb61 0103 	sbc.w	r1, r1, r3
 8000594:	fa01 fc0c 	lsl.w	ip, r1, ip
 8000598:	fa22 f307 	lsr.w	r3, r2, r7
 800059c:	ea4c 0303 	orr.w	r3, ip, r3
 80005a0:	40f9      	lsrs	r1, r7
 80005a2:	e9c6 3100 	strd	r3, r1, [r6]
 80005a6:	e798      	b.n	80004da <__udivmoddi4+0x1ca>
 80005a8:	4640      	mov	r0, r8
 80005aa:	e7c5      	b.n	8000538 <__udivmoddi4+0x228>
 80005ac:	4643      	mov	r3, r8
 80005ae:	e7d9      	b.n	8000564 <__udivmoddi4+0x254>

080005b0 <currsmp_shunt_stm32_get_currents>:
	data->regulation_ctx = ctx;
}

void currsmp_shunt_stm32_get_currents(const struct device *dev,
					     struct currsmp_curr *curr)
{
 80005b0:	b510      	push	{r4, lr}
    // return;
	const struct currsmp_shunt_stm32_config *cfg = dev->config;
 80005b2:	6844      	ldr	r4, [r0, #4]
	struct currsmp_shunt_stm32_data *data = dev->data;
 80005b4:	6902      	ldr	r2, [r0, #16]
    data->adc_channl_a = LL_ADC_INJ_ReadConversionData12(cfg->adc, LL_ADC_INJ_RANK_1);
 80005b6:	6823      	ldr	r3, [r4, #0]
    data->adc_channl_b = LL_ADC_INJ_ReadConversionData12(cfg->adc, LL_ADC_INJ_RANK_2);
    data->adc_channl_c = LL_ADC_INJ_ReadConversionData12(cfg->adc, LL_ADC_INJ_RANK_3);

	curr->i_a = (float)data->adc_channl_a / (2048);
 80005b8:	ed9f 7a14 	vldr	s14, [pc, #80]	; 800060c <currsmp_shunt_stm32_get_currents+0x5c>
  */
__STATIC_INLINE uint16_t LL_ADC_INJ_ReadConversionData12(const ADC_TypeDef *ADCx, uint32_t Rank)
{
  const __IO uint32_t *preg = __ADC_PTR_REG_OFFSET(ADCx->JDR1, ((Rank & ADC_INJ_JDRX_REGOFFSET_MASK) >> ADC_JDRX_REGOFFSET_POS));

  return (uint16_t)(READ_BIT(*preg,
 80005bc:	f8d3 3080 	ldr.w	r3, [r3, #128]	; 0x80
 80005c0:	b29b      	uxth	r3, r3
    data->adc_channl_a = LL_ADC_INJ_ReadConversionData12(cfg->adc, LL_ADC_INJ_RANK_1);
 80005c2:	6093      	str	r3, [r2, #8]
	curr->i_a = (float)data->adc_channl_a / (2048);
 80005c4:	ee07 3a90 	vmov	s15, r3
  const __IO uint32_t *preg = __ADC_PTR_REG_OFFSET(ADCx->JDR1, ((Rank & ADC_INJ_JDRX_REGOFFSET_MASK) >> ADC_JDRX_REGOFFSET_POS));
 80005c8:	6820      	ldr	r0, [r4, #0]
 80005ca:	eef8 7ae7 	vcvt.f32.s32	s15, s15
  return (uint16_t)(READ_BIT(*preg,
 80005ce:	f8d0 0084 	ldr.w	r0, [r0, #132]	; 0x84
    data->adc_channl_b = LL_ADC_INJ_ReadConversionData12(cfg->adc, LL_ADC_INJ_RANK_2);
 80005d2:	b280      	uxth	r0, r0
	curr->i_a = (float)data->adc_channl_a / (2048);
 80005d4:	ee67 7a87 	vmul.f32	s15, s15, s14
    data->adc_channl_b = LL_ADC_INJ_ReadConversionData12(cfg->adc, LL_ADC_INJ_RANK_2);
 80005d8:	60d0      	str	r0, [r2, #12]
  const __IO uint32_t *preg = __ADC_PTR_REG_OFFSET(ADCx->JDR1, ((Rank & ADC_INJ_JDRX_REGOFFSET_MASK) >> ADC_JDRX_REGOFFSET_POS));
 80005da:	6820      	ldr	r0, [r4, #0]
  return (uint16_t)(READ_BIT(*preg,
 80005dc:	f8d0 0088 	ldr.w	r0, [r0, #136]	; 0x88
    data->adc_channl_c = LL_ADC_INJ_ReadConversionData12(cfg->adc, LL_ADC_INJ_RANK_3);
 80005e0:	b280      	uxth	r0, r0
 80005e2:	6110      	str	r0, [r2, #16]
	curr->i_a = (float)data->adc_channl_a / (2048);
 80005e4:	edc1 7a00 	vstr	s15, [r1]
	curr->i_b = (float)data->adc_channl_a / (2048);
 80005e8:	edd2 7a02 	vldr	s15, [r2, #8]
 80005ec:	eef8 7a67 	vcvt.f32.u32	s15, s15
 80005f0:	ee67 7a87 	vmul.f32	s15, s15, s14
 80005f4:	edc1 7a01 	vstr	s15, [r1, #4]
	curr->i_c = (float)data->adc_channl_a / (2048);
 80005f8:	edd2 7a02 	vldr	s15, [r2, #8]
 80005fc:	eef8 7a67 	vcvt.f32.u32	s15, s15
 8000600:	ee67 7a87 	vmul.f32	s15, s15, s14
 8000604:	edc1 7a02 	vstr	s15, [r1, #8]
}
 8000608:	bd10      	pop	{r4, pc}
 800060a:	bf00      	nop
 800060c:	3a000000 	.word	0x3a000000

08000610 <adc_stm32_isr_18>:

/* only generate isr code once */
#define GENERATE_ISR(n)							\
	COND_CODE_1(IS_EQ(n, FIRST_WITH_IRQN(n)), (GENERATE_ISR_CODE(n)), (EMPTY))

DT_INST_FOREACH_STATUS_OKAY(GENERATE_ISR)
 8000610:	4804      	ldr	r0, [pc, #16]	; (8000624 <adc_stm32_isr_18+0x14>)
 8000612:	b508      	push	{r3, lr}
 8000614:	f006 fac5 	bl	8006ba2 <adc_stm32_isr>
 8000618:	4803      	ldr	r0, [pc, #12]	; (8000628 <adc_stm32_isr_18+0x18>)
 800061a:	e8bd 4008 	ldmia.w	sp!, {r3, lr}
 800061e:	f006 bac0 	b.w	8006ba2 <adc_stm32_isr>
 8000622:	bf00      	nop
 8000624:	0800869c 	.word	0x0800869c
 8000628:	08008688 	.word	0x08008688

0800062c <LL_ADC_SetChannelPreselection>:
    if (ADCx != ADC3)
 800062c:	4b09      	ldr	r3, [pc, #36]	; (8000654 <LL_ADC_SetChannelPreselection+0x28>)
 800062e:	4298      	cmp	r0, r3
 8000630:	d008      	beq.n	8000644 <LL_ADC_SetChannelPreselection+0x18>
      ADCx->PCSEL_RES0 |= (1UL << (__LL_ADC_CHANNEL_TO_DECIMAL_NB(Channel) & 0x1FUL));
 8000632:	f3c1 0313 	ubfx	r3, r1, #0, #20
 8000636:	b933      	cbnz	r3, 8000646 <LL_ADC_SetChannelPreselection+0x1a>
 8000638:	0e89      	lsrs	r1, r1, #26
 800063a:	2301      	movs	r3, #1
 800063c:	69c2      	ldr	r2, [r0, #28]
 800063e:	408b      	lsls	r3, r1
 8000640:	4313      	orrs	r3, r2
 8000642:	61c3      	str	r3, [r0, #28]
}
 8000644:	4770      	bx	lr
  uint32_t result;

#if ((defined (__ARM_ARCH_7M__      ) && (__ARM_ARCH_7M__      == 1)) || \
     (defined (__ARM_ARCH_7EM__     ) && (__ARM_ARCH_7EM__     == 1)) || \
     (defined (__ARM_ARCH_8M_MAIN__ ) && (__ARM_ARCH_8M_MAIN__ == 1))    )
   __ASM ("rbit %0, %1" : "=r" (result) : "r" (value) );
 8000646:	fa91 f1a1 	rbit	r1, r1
   */
  if (value == 0U)
  {
    return 32U;
  }
  return __builtin_clz(value);
 800064a:	fab1 f181 	clz	r1, r1
      ADCx->PCSEL_RES0 |= (1UL << (__LL_ADC_CHANNEL_TO_DECIMAL_NB(Channel) & 0x1FUL));
 800064e:	f001 011f 	and.w	r1, r1, #31
 8000652:	e7f2      	b.n	800063a <LL_ADC_SetChannelPreselection+0xe>
 8000654:	58026000 	.word	0x58026000

08000658 <LL_ADC_SetChannelSingleDiff.constprop.0>:
  if (ADCx == ADC3)
 8000658:	4b09      	ldr	r3, [pc, #36]	; (8000680 <LL_ADC_SetChannelSingleDiff.constprop.0+0x28>)
    MODIFY_REG(ADCx->LTR2_DIFSEL,
 800065a:	f3c1 0113 	ubfx	r1, r1, #0, #20
  if (ADCx == ADC3)
 800065e:	4298      	cmp	r0, r3
    MODIFY_REG(ADCx->LTR2_DIFSEL,
 8000660:	ea6f 0101 	mvn.w	r1, r1
  if (ADCx == ADC3)
 8000664:	d105      	bne.n	8000672 <LL_ADC_SetChannelSingleDiff.constprop.0+0x1a>
    MODIFY_REG(ADCx->LTR2_DIFSEL,
 8000666:	f8d0 30b0 	ldr.w	r3, [r0, #176]	; 0xb0
 800066a:	4019      	ands	r1, r3
 800066c:	f8c0 10b0 	str.w	r1, [r0, #176]	; 0xb0
}
 8000670:	4770      	bx	lr
    MODIFY_REG(ADCx->DIFSEL_RES12,
 8000672:	f8d0 30c0 	ldr.w	r3, [r0, #192]	; 0xc0
 8000676:	400b      	ands	r3, r1
 8000678:	f8c0 30c0 	str.w	r3, [r0, #192]	; 0xc0
}
 800067c:	4770      	bx	lr
 800067e:	bf00      	nop
 8000680:	58026000 	.word	0x58026000

08000684 <currsmp_shunt_stm32_init>:
{
 8000684:	b570      	push	{r4, r5, r6, lr}
    const struct currsmp_shunt_stm32_config *cfg = dev->config;
 8000686:	6844      	ldr	r4, [r0, #4]
{
 8000688:	b092      	sub	sp, #72	; 0x48
				   clock_control_subsys_t sys)
{
	const struct clock_control_driver_api *api =
		(const struct clock_control_driver_api *)dev->api;

	return api->on(dev, sys);
 800068a:	489b      	ldr	r0, [pc, #620]	; (80008f8 <currsmp_shunt_stm32_init+0x274>)
 800068c:	1d21      	adds	r1, r4, #4
 800068e:	6883      	ldr	r3, [r0, #8]
 8000690:	681b      	ldr	r3, [r3, #0]
 8000692:	4798      	blx	r3
    if (ret < 0) {
 8000694:	2800      	cmp	r0, #0
 8000696:	f2c0 8122 	blt.w	80008de <currsmp_shunt_stm32_init+0x25a>
				      uint8_t id)
{
	int ret;
	const struct pinctrl_state *state;

	ret = pinctrl_lookup_state(config, id, &state);
 800069a:	aa0c      	add	r2, sp, #48	; 0x30
 800069c:	2100      	movs	r1, #0
 800069e:	68e0      	ldr	r0, [r4, #12]
 80006a0:	f007 fa39 	bl	8007b16 <pinctrl_lookup_state>
	if (ret < 0) {
 80006a4:	2800      	cmp	r0, #0
 80006a6:	f2c0 811a 	blt.w	80008de <currsmp_shunt_stm32_init+0x25a>
		return ret;
	}

	return pinctrl_apply_state_direct(config, state);
 80006aa:	9b0c      	ldr	r3, [sp, #48]	; 0x30
	return pinctrl_configure_pins(state->pins, state->pin_cnt, reg);
 80006ac:	2200      	movs	r2, #0
 80006ae:	7919      	ldrb	r1, [r3, #4]
 80006b0:	6818      	ldr	r0, [r3, #0]
 80006b2:	f003 f95d 	bl	8003970 <pinctrl_configure_pins>
    if (ret < 0) {
 80006b6:	2800      	cmp	r0, #0
 80006b8:	f2c0 8111 	blt.w	80008de <currsmp_shunt_stm32_init+0x25a>
    LL_ADC_InitTypeDef ADC_InitStruct = {0};
 80006bc:	2500      	movs	r5, #0
    LL_ADC_REG_InitTypeDef ADC_REG_InitStruct = {0};
 80006be:	2218      	movs	r2, #24
 80006c0:	a80c      	add	r0, sp, #48	; 0x30
 80006c2:	4629      	mov	r1, r5
    LL_ADC_InitTypeDef ADC_InitStruct = {0};
 80006c4:	9503      	str	r5, [sp, #12]
 80006c6:	e9cd 5501 	strd	r5, r5, [sp, #4]
    LL_ADC_REG_InitTypeDef ADC_REG_InitStruct = {0};
 80006ca:	f007 fcfa 	bl	80080c2 <memset>
    LL_ADC_CommonInitTypeDef ADC_CommonInitStruct = {0};
 80006ce:	2210      	movs	r2, #16
 80006d0:	4629      	mov	r1, r5
 80006d2:	eb0d 0002 	add.w	r0, sp, r2
 80006d6:	f007 fcf4 	bl	80080c2 <memset>
    LL_ADC_INJ_InitTypeDef ADC_INJ_InitStruct = {0};
 80006da:	2210      	movs	r2, #16
 80006dc:	4629      	mov	r1, r5
 80006de:	a808      	add	r0, sp, #32
 80006e0:	f007 fcef 	bl	80080c2 <memset>
    LL_ADC_SetOverSamplingScope(cfg->adc, LL_ADC_OVS_DISABLE);
 80006e4:	6822      	ldr	r2, [r4, #0]
    LL_ADC_Init(cfg->adc, &ADC_InitStruct);
 80006e6:	a901      	add	r1, sp, #4
  MODIFY_REG(ADCx->CFGR2, ADC_CFGR2_ROVSE | ADC_CFGR2_JOVSE | ADC_CFGR2_ROVSM, OvsScope);
 80006e8:	6913      	ldr	r3, [r2, #16]
 80006ea:	f423 6380 	bic.w	r3, r3, #1024	; 0x400
 80006ee:	f023 0303 	bic.w	r3, r3, #3
 80006f2:	6113      	str	r3, [r2, #16]
    ADC_InitStruct.Resolution = LL_ADC_RESOLUTION_12B;
 80006f4:	2308      	movs	r3, #8
 80006f6:	9301      	str	r3, [sp, #4]
    LL_ADC_Init(cfg->adc, &ADC_InitStruct);
 80006f8:	6820      	ldr	r0, [r4, #0]
 80006fa:	f003 fda1 	bl	8004240 <LL_ADC_Init>
    ADC_REG_InitStruct.ContinuousMode = LL_ADC_REG_CONV_CONTINUOUS;
 80006fe:	f44f 5300 	mov.w	r3, #8192	; 0x2000
    ADC_REG_InitStruct.SequencerDiscont = DISABLE;
 8000702:	950e      	str	r5, [sp, #56]	; 0x38
    LL_ADC_REG_Init(cfg->adc, &ADC_REG_InitStruct);
 8000704:	a90c      	add	r1, sp, #48	; 0x30
    ADC_REG_InitStruct.ContinuousMode = LL_ADC_REG_CONV_CONTINUOUS;
 8000706:	930f      	str	r3, [sp, #60]	; 0x3c
    ADC_REG_InitStruct.Overrun = LL_ADC_REG_OVR_DATA_OVERWRITTEN;
 8000708:	f44f 5380 	mov.w	r3, #4096	; 0x1000
    ADC_REG_InitStruct.SequencerLength = LL_ADC_REG_SEQ_SCAN_DISABLE;
 800070c:	e9cd 550c 	strd	r5, r5, [sp, #48]	; 0x30
    ADC_REG_InitStruct.Overrun = LL_ADC_REG_OVR_DATA_OVERWRITTEN;
 8000710:	9311      	str	r3, [sp, #68]	; 0x44
    LL_ADC_REG_Init(cfg->adc, &ADC_REG_InitStruct);
 8000712:	6820      	ldr	r0, [r4, #0]
 8000714:	f003 fdc2 	bl	800429c <LL_ADC_REG_Init>
    if(!cfg->slave_mode_flag)
 8000718:	6923      	ldr	r3, [r4, #16]
 800071a:	2b00      	cmp	r3, #0
 800071c:	f040 80e3 	bne.w	80008e6 <currsmp_shunt_stm32_init+0x262>
        ADC_CommonInitStruct.Multimode = LL_ADC_MULTI_DUAL_INJ_SIMULT;
 8000720:	2305      	movs	r3, #5
 8000722:	f44f 2000 	mov.w	r0, #524288	; 0x80000
        LL_ADC_CommonInit(__LL_ADC_COMMON_INSTANCE(cfg->adc), &ADC_CommonInitStruct);
 8000726:	4a75      	ldr	r2, [pc, #468]	; (80008fc <currsmp_shunt_stm32_init+0x278>)
        ADC_CommonInitStruct.Multimode = LL_ADC_MULTI_DUAL_INJ_SIMULT;
 8000728:	e9cd 0304 	strd	r0, r3, [sp, #16]
        ADC_CommonInitStruct.MultiTwoSamplingDelay = LL_ADC_MULTI_TWOSMP_DELAY_2CYCLES_5;
 800072c:	f44f 7380 	mov.w	r3, #256	; 0x100
 8000730:	9307      	str	r3, [sp, #28]
        LL_ADC_CommonInit(__LL_ADC_COMMON_INSTANCE(cfg->adc), &ADC_CommonInitStruct);
 8000732:	6823      	ldr	r3, [r4, #0]
 8000734:	4293      	cmp	r3, r2
 8000736:	f000 80d4 	beq.w	80008e2 <currsmp_shunt_stm32_init+0x25e>
 800073a:	4971      	ldr	r1, [pc, #452]	; (8000900 <currsmp_shunt_stm32_init+0x27c>)
 800073c:	f502 7240 	add.w	r2, r2, #768	; 0x300
 8000740:	4870      	ldr	r0, [pc, #448]	; (8000904 <currsmp_shunt_stm32_init+0x280>)
 8000742:	428b      	cmp	r3, r1
 8000744:	bf08      	it	eq
 8000746:	4610      	moveq	r0, r2
 8000748:	a904      	add	r1, sp, #16
 800074a:	f003 fd4d 	bl	80041e8 <LL_ADC_CommonInit>
        ADC_INJ_InitStruct.SequencerLength = LL_ADC_INJ_SEQ_SCAN_ENABLE_3RANKS;
 800074e:	2302      	movs	r3, #2
 8000750:	2184      	movs	r1, #132	; 0x84
 8000752:	e9cd 1308 	strd	r1, r3, [sp, #32]
        ADC_INJ_InitStruct.SequencerDiscont = LL_ADC_INJ_SEQ_DISCONT_DISABLE;
 8000756:	2300      	movs	r3, #0
        ADC_INJ_InitStruct.TrigAuto = LL_ADC_INJ_TRIG_INDEPENDENT;
 8000758:	e9cd 330a 	strd	r3, r3, [sp, #40]	; 0x28
        LL_ADC_INJ_Init(cfg->adc, &ADC_INJ_InitStruct);        
 800075c:	a908      	add	r1, sp, #32
 800075e:	6820      	ldr	r0, [r4, #0]
 8000760:	f007 fafc 	bl	8007d5c <LL_ADC_INJ_Init>
    LL_ADC_INJ_SetQueueMode(cfg->adc, LL_ADC_INJ_QUEUE_DISABLE);
 8000764:	6822      	ldr	r2, [r4, #0]
  MODIFY_REG(ADCx->CFGR, ADC_CFGR_JQM | ADC_CFGR_JQDIS, QueueMode);
 8000766:	68d3      	ldr	r3, [r2, #12]
 8000768:	f023 4300 	bic.w	r3, r3, #2147483648	; 0x80000000
 800076c:	f423 1300 	bic.w	r3, r3, #2097152	; 0x200000
 8000770:	f043 4300 	orr.w	r3, r3, #2147483648	; 0x80000000
 8000774:	60d3      	str	r3, [r2, #12]
    LL_ADC_SetOverSamplingScope(cfg->adc, LL_ADC_OVS_DISABLE);
 8000776:	6822      	ldr	r2, [r4, #0]
  MODIFY_REG(ADCx->CFGR2, ADC_CFGR2_ROVSE | ADC_CFGR2_JOVSE | ADC_CFGR2_ROVSM, OvsScope);
 8000778:	6913      	ldr	r3, [r2, #16]
 800077a:	f423 6380 	bic.w	r3, r3, #1024	; 0x400
 800077e:	f023 0303 	bic.w	r3, r3, #3
 8000782:	6113      	str	r3, [r2, #16]
    LL_ADC_INJ_SetTriggerEdge(cfg->adc, LL_ADC_INJ_TRIG_EXT_RISING);
 8000784:	6822      	ldr	r2, [r4, #0]
  MODIFY_REG(ADCx->JSQR, ADC_JSQR_JEXTEN, ExternalTriggerEdge);
 8000786:	6cd3      	ldr	r3, [r2, #76]	; 0x4c
 8000788:	f423 73c0 	bic.w	r3, r3, #384	; 0x180
 800078c:	f043 0380 	orr.w	r3, r3, #128	; 0x80
 8000790:	64d3      	str	r3, [r2, #76]	; 0x4c
    LL_ADC_DisableDeepPowerDown(cfg->adc);
 8000792:	6822      	ldr	r2, [r4, #0]
  CLEAR_BIT(ADCx->CR, (ADC_CR_DEEPPWD | ADC_CR_BITS_PROPERTY_RS));
 8000794:	6893      	ldr	r3, [r2, #8]
 8000796:	f023 4320 	bic.w	r3, r3, #2684354560	; 0xa0000000
 800079a:	f023 033f 	bic.w	r3, r3, #63	; 0x3f
 800079e:	6093      	str	r3, [r2, #8]
    LL_ADC_EnableInternalRegulator(cfg->adc);
 80007a0:	6822      	ldr	r2, [r4, #0]
  MODIFY_REG(ADCx->CR,
 80007a2:	6893      	ldr	r3, [r2, #8]
 80007a4:	f023 4310 	bic.w	r3, r3, #2415919104	; 0x90000000
 80007a8:	f023 033f 	bic.w	r3, r3, #63	; 0x3f
 80007ac:	f043 5380 	orr.w	r3, r3, #268435456	; 0x10000000
 80007b0:	6093      	str	r3, [r2, #8]
    wait_loop_index = ((LL_ADC_DELAY_INTERNAL_REGUL_STAB_US * (SystemCoreClock / (100000 * 2))) / 10);
 80007b2:	4b55      	ldr	r3, [pc, #340]	; (8000908 <currsmp_shunt_stm32_init+0x284>)
 80007b4:	4a55      	ldr	r2, [pc, #340]	; (800090c <currsmp_shunt_stm32_init+0x288>)
 80007b6:	681b      	ldr	r3, [r3, #0]
 80007b8:	fbb3 f3f2 	udiv	r3, r3, r2
    while(wait_loop_index != 0) { wait_loop_index--; }
 80007bc:	9300      	str	r3, [sp, #0]
 80007be:	9b00      	ldr	r3, [sp, #0]
 80007c0:	2b00      	cmp	r3, #0
 80007c2:	f040 8095 	bne.w	80008f0 <currsmp_shunt_stm32_init+0x26c>
    if(!cfg->slave_mode_flag)
 80007c6:	6923      	ldr	r3, [r4, #16]
        LL_ADC_REG_SetSequencerRanks(cfg->adc, LL_ADC_REG_RANK_1, LL_ADC_CHANNEL_3);
 80007c8:	6822      	ldr	r2, [r4, #0]
    if(!cfg->slave_mode_flag)
 80007ca:	2b00      	cmp	r3, #0
 80007cc:	f040 80b2 	bne.w	8000934 <currsmp_shunt_stm32_init+0x2b0>
  MODIFY_REG(*preg,
 80007d0:	6b13      	ldr	r3, [r2, #48]	; 0x30
        LL_ADC_SetChannelSingleDiff(cfg->adc, LL_ADC_CHANNEL_3, LL_ADC_SINGLE_ENDED);
 80007d2:	494f      	ldr	r1, [pc, #316]	; (8000910 <currsmp_shunt_stm32_init+0x28c>)
 80007d4:	f423 63f8 	bic.w	r3, r3, #1984	; 0x7c0
 80007d8:	f043 03c0 	orr.w	r3, r3, #192	; 0xc0
 80007dc:	6313      	str	r3, [r2, #48]	; 0x30
        LL_ADC_SetChannelSamplingTime(cfg->adc, LL_ADC_CHANNEL_3, LL_ADC_SAMPLINGTIME_1CYCLE_5);
 80007de:	6822      	ldr	r2, [r4, #0]
  MODIFY_REG(*preg,
 80007e0:	6953      	ldr	r3, [r2, #20]
 80007e2:	f423 6360 	bic.w	r3, r3, #3584	; 0xe00
 80007e6:	6153      	str	r3, [r2, #20]
        LL_ADC_SetChannelSingleDiff(cfg->adc, LL_ADC_CHANNEL_3, LL_ADC_SINGLE_ENDED);
 80007e8:	6820      	ldr	r0, [r4, #0]
 80007ea:	f7ff ff35 	bl	8000658 <LL_ADC_SetChannelSingleDiff.constprop.0>
        LL_ADC_SetChannelPreselection(cfg->adc, LL_ADC_CHANNEL_3);
 80007ee:	4948      	ldr	r1, [pc, #288]	; (8000910 <currsmp_shunt_stm32_init+0x28c>)
 80007f0:	6820      	ldr	r0, [r4, #0]
 80007f2:	f7ff ff1b 	bl	800062c <LL_ADC_SetChannelPreselection>
        LL_ADC_INJ_SetSequencerRanks(cfg->adc, LL_ADC_INJ_RANK_1, LL_ADC_CHANNEL_14);
 80007f6:	6822      	ldr	r2, [r4, #0]
        LL_ADC_SetChannelSingleDiff(cfg->adc, LL_ADC_CHANNEL_14, LL_ADC_SINGLE_ENDED);
 80007f8:	4946      	ldr	r1, [pc, #280]	; (8000914 <currsmp_shunt_stm32_init+0x290>)
  MODIFY_REG(ADCx->JSQR,
 80007fa:	6cd3      	ldr	r3, [r2, #76]	; 0x4c
 80007fc:	f423 5378 	bic.w	r3, r3, #15872	; 0x3e00
 8000800:	f443 53e0 	orr.w	r3, r3, #7168	; 0x1c00
 8000804:	64d3      	str	r3, [r2, #76]	; 0x4c
  __IO uint32_t *preg = __ADC_PTR_REG_OFFSET(ADCx->SMPR1, ((Channel & ADC_CHANNEL_SMPRX_REGOFFSET_MASK) >> ADC_SMPRX_REGOFFSET_POS));
 8000806:	6822      	ldr	r2, [r4, #0]
  MODIFY_REG(*preg,
 8000808:	6993      	ldr	r3, [r2, #24]
 800080a:	f423 43e0 	bic.w	r3, r3, #28672	; 0x7000
 800080e:	6193      	str	r3, [r2, #24]
 8000810:	6820      	ldr	r0, [r4, #0]
 8000812:	f7ff ff21 	bl	8000658 <LL_ADC_SetChannelSingleDiff.constprop.0>
        LL_ADC_INJ_SetSequencerRanks(cfg->adc, LL_ADC_INJ_RANK_2, LL_ADC_CHANNEL_16);
 8000816:	6822      	ldr	r2, [r4, #0]
        LL_ADC_SetChannelSingleDiff(cfg->adc, LL_ADC_CHANNEL_16, LL_ADC_SINGLE_ENDED);
 8000818:	493f      	ldr	r1, [pc, #252]	; (8000918 <currsmp_shunt_stm32_init+0x294>)
  MODIFY_REG(ADCx->JSQR,
 800081a:	6cd3      	ldr	r3, [r2, #76]	; 0x4c
 800081c:	f423 2378 	bic.w	r3, r3, #1015808	; 0xf8000
 8000820:	f443 2300 	orr.w	r3, r3, #524288	; 0x80000
 8000824:	64d3      	str	r3, [r2, #76]	; 0x4c
  __IO uint32_t *preg = __ADC_PTR_REG_OFFSET(ADCx->SMPR1, ((Channel & ADC_CHANNEL_SMPRX_REGOFFSET_MASK) >> ADC_SMPRX_REGOFFSET_POS));
 8000826:	6822      	ldr	r2, [r4, #0]
  MODIFY_REG(*preg,
 8000828:	6993      	ldr	r3, [r2, #24]
 800082a:	f423 13e0 	bic.w	r3, r3, #1835008	; 0x1c0000
 800082e:	6193      	str	r3, [r2, #24]
 8000830:	6820      	ldr	r0, [r4, #0]
 8000832:	f7ff ff11 	bl	8000658 <LL_ADC_SetChannelSingleDiff.constprop.0>
        LL_ADC_INJ_SetSequencerRanks(cfg->adc, LL_ADC_INJ_RANK_3, LL_ADC_CHANNEL_17);
 8000836:	6822      	ldr	r2, [r4, #0]
        LL_ADC_SetChannelSingleDiff(cfg->adc, LL_ADC_CHANNEL_17, LL_ADC_SINGLE_ENDED);    
 8000838:	4938      	ldr	r1, [pc, #224]	; (800091c <currsmp_shunt_stm32_init+0x298>)
  MODIFY_REG(ADCx->JSQR,
 800083a:	6cd3      	ldr	r3, [r2, #76]	; 0x4c
 800083c:	f023 7378 	bic.w	r3, r3, #65011712	; 0x3e00000
 8000840:	f043 7308 	orr.w	r3, r3, #35651584	; 0x2200000
 8000844:	64d3      	str	r3, [r2, #76]	; 0x4c
  __IO uint32_t *preg = __ADC_PTR_REG_OFFSET(ADCx->SMPR1, ((Channel & ADC_CHANNEL_SMPRX_REGOFFSET_MASK) >> ADC_SMPRX_REGOFFSET_POS));
 8000846:	6822      	ldr	r2, [r4, #0]
  MODIFY_REG(*preg,
 8000848:	6993      	ldr	r3, [r2, #24]
 800084a:	f423 0360 	bic.w	r3, r3, #14680064	; 0xe00000
 800084e:	6193      	str	r3, [r2, #24]
 8000850:	6820      	ldr	r0, [r4, #0]
 8000852:	f7ff ff01 	bl	8000658 <LL_ADC_SetChannelSingleDiff.constprop.0>
        LL_ADC_SetChannelPreselection(cfg->adc,LL_ADC_CHANNEL_14);
 8000856:	492f      	ldr	r1, [pc, #188]	; (8000914 <currsmp_shunt_stm32_init+0x290>)
 8000858:	6820      	ldr	r0, [r4, #0]
 800085a:	f7ff fee7 	bl	800062c <LL_ADC_SetChannelPreselection>
        LL_ADC_SetChannelPreselection(cfg->adc,LL_ADC_CHANNEL_16);
 800085e:	492e      	ldr	r1, [pc, #184]	; (8000918 <currsmp_shunt_stm32_init+0x294>)
 8000860:	6820      	ldr	r0, [r4, #0]
 8000862:	f7ff fee3 	bl	800062c <LL_ADC_SetChannelPreselection>
        LL_ADC_SetChannelPreselection(cfg->adc,LL_ADC_CHANNEL_17);        
 8000866:	492d      	ldr	r1, [pc, #180]	; (800091c <currsmp_shunt_stm32_init+0x298>)
        LL_ADC_SetChannelPreselection(cfg->adc,LL_ADC_CHANNEL_5);
 8000868:	6820      	ldr	r0, [r4, #0]
 800086a:	f7ff fedf 	bl	800062c <LL_ADC_SetChannelPreselection>
    if(!cfg->slave_mode_flag)
 800086e:	6923      	ldr	r3, [r4, #16]
 8000870:	4e2b      	ldr	r6, [pc, #172]	; (8000920 <currsmp_shunt_stm32_init+0x29c>)
 8000872:	4d2c      	ldr	r5, [pc, #176]	; (8000924 <currsmp_shunt_stm32_init+0x2a0>)
 8000874:	2b00      	cmp	r3, #0
 8000876:	f040 80aa 	bne.w	80009ce <currsmp_shunt_stm32_init+0x34a>
        if (cfg->irq_cfg_func != NULL) {
 800087a:	6963      	ldr	r3, [r4, #20]
 800087c:	b103      	cbz	r3, 8000880 <currsmp_shunt_stm32_init+0x1fc>
            cfg->irq_cfg_func();
 800087e:	4798      	blx	r3
        LL_ADC_Disable(cfg->adc);
 8000880:	6822      	ldr	r2, [r4, #0]
  MODIFY_REG(ADCx->CR,
 8000882:	6893      	ldr	r3, [r2, #8]
 8000884:	4033      	ands	r3, r6
 8000886:	f043 0302 	orr.w	r3, r3, #2
 800088a:	6093      	str	r3, [r2, #8]
        LL_ADC_StartCalibration(cfg->adc,LL_ADC_CALIB_OFFSET,LL_ADC_SINGLE_ENDED);
 800088c:	6822      	ldr	r2, [r4, #0]
  MODIFY_REG(ADCx->CR,
 800088e:	6893      	ldr	r3, [r2, #8]
 8000890:	402b      	ands	r3, r5
 8000892:	f043 4300 	orr.w	r3, r3, #2147483648	; 0x80000000
 8000896:	6093      	str	r3, [r2, #8]
        while (LL_ADC_IsCalibrationOnGoing(cfg->adc));
 8000898:	6822      	ldr	r2, [r4, #0]
  return ((READ_BIT(ADCx->CR, ADC_CR_ADCAL) == (ADC_CR_ADCAL)) ? 1UL : 0UL);
 800089a:	6893      	ldr	r3, [r2, #8]
 800089c:	2b00      	cmp	r3, #0
 800089e:	dbfc      	blt.n	800089a <currsmp_shunt_stm32_init+0x216>
  MODIFY_REG(ADCx->CR,
 80008a0:	6893      	ldr	r3, [r2, #8]
 80008a2:	f023 4300 	bic.w	r3, r3, #2147483648	; 0x80000000
 80008a6:	f023 033f 	bic.w	r3, r3, #63	; 0x3f
 80008aa:	f043 0301 	orr.w	r3, r3, #1
 80008ae:	6093      	str	r3, [r2, #8]
        while (LL_ADC_IsActiveFlag_ADRDY(cfg->adc) == 0);
 80008b0:	6823      	ldr	r3, [r4, #0]
  * @param  ADCx ADC instance
  * @retval State of bit (1 or 0).
  */
__STATIC_INLINE uint32_t LL_ADC_IsActiveFlag_ADRDY(const ADC_TypeDef *ADCx)
{
  return ((READ_BIT(ADCx->ISR, LL_ADC_FLAG_ADRDY) == (LL_ADC_FLAG_ADRDY)) ? 1UL : 0UL);
 80008b2:	681a      	ldr	r2, [r3, #0]
 80008b4:	07d2      	lsls	r2, r2, #31
 80008b6:	d5fc      	bpl.n	80008b2 <currsmp_shunt_stm32_init+0x22e>
  * @param  ADCx ADC instance
  * @retval None
  */
__STATIC_INLINE void LL_ADC_EnableIT_JEOS(ADC_TypeDef *ADCx)
{
  SET_BIT(ADCx->IER, LL_ADC_IT_JEOS);
 80008b8:	685a      	ldr	r2, [r3, #4]
 80008ba:	f042 0240 	orr.w	r2, r2, #64	; 0x40
 80008be:	605a      	str	r2, [r3, #4]
        LL_ADC_INJ_StartConversion(cfg->adc);
 80008c0:	6822      	ldr	r2, [r4, #0]
  MODIFY_REG(ADCx->CR,
 80008c2:	6893      	ldr	r3, [r2, #8]
 80008c4:	f023 4300 	bic.w	r3, r3, #2147483648	; 0x80000000
 80008c8:	f023 033f 	bic.w	r3, r3, #63	; 0x3f
 80008cc:	f043 0308 	orr.w	r3, r3, #8
 80008d0:	6093      	str	r3, [r2, #8]
		(void) arch_syscall_invoke3(parm0.x, parm1.x, parm2.x, K_SYSCALL_Z_LOG_MSG_SIMPLE_CREATE_0);
		return;
	}
#endif
	compiler_barrier();
	z_impl_z_log_msg_simple_create_0(source, level, fmt);
 80008d2:	4815      	ldr	r0, [pc, #84]	; (8000928 <currsmp_shunt_stm32_init+0x2a4>)
 80008d4:	2103      	movs	r1, #3
 80008d6:	4a15      	ldr	r2, [pc, #84]	; (800092c <currsmp_shunt_stm32_init+0x2a8>)
 80008d8:	f006 fe64 	bl	80075a4 <z_impl_z_log_msg_simple_create_0>
    return 0;
 80008dc:	2000      	movs	r0, #0
}
 80008de:	b012      	add	sp, #72	; 0x48
 80008e0:	bd70      	pop	{r4, r5, r6, pc}
        LL_ADC_CommonInit(__LL_ADC_COMMON_INSTANCE(cfg->adc), &ADC_CommonInitStruct);
 80008e2:	4813      	ldr	r0, [pc, #76]	; (8000930 <currsmp_shunt_stm32_init+0x2ac>)
 80008e4:	e730      	b.n	8000748 <currsmp_shunt_stm32_init+0xc4>
        ADC_INJ_InitStruct.SequencerLength = LL_ADC_INJ_SEQ_SCAN_ENABLE_3RANKS;
 80008e6:	2302      	movs	r3, #2
        ADC_INJ_InitStruct.TrigAuto = LL_ADC_INJ_TRIG_INDEPENDENT;
 80008e8:	950b      	str	r5, [sp, #44]	; 0x2c
        ADC_INJ_InitStruct.SequencerDiscont = LL_ADC_INJ_SEQ_DISCONT_DISABLE;
 80008ea:	e9cd 3509 	strd	r3, r5, [sp, #36]	; 0x24
        ADC_INJ_InitStruct.TrigAuto = LL_ADC_INJ_TRIG_INDEPENDENT;
 80008ee:	e735      	b.n	800075c <currsmp_shunt_stm32_init+0xd8>
    while(wait_loop_index != 0) { wait_loop_index--; }
 80008f0:	9b00      	ldr	r3, [sp, #0]
 80008f2:	3b01      	subs	r3, #1
 80008f4:	e762      	b.n	80007bc <currsmp_shunt_stm32_init+0x138>
 80008f6:	bf00      	nop
 80008f8:	0800855c 	.word	0x0800855c
 80008fc:	40022000 	.word	0x40022000
 8000900:	40022100 	.word	0x40022100
 8000904:	58026300 	.word	0x58026300
 8000908:	24000588 	.word	0x24000588
 800090c:	00030d40 	.word	0x00030d40
 8000910:	0c900008 	.word	0x0c900008
 8000914:	3ac04000 	.word	0x3ac04000
 8000918:	43210000 	.word	0x43210000
 800091c:	47520000 	.word	0x47520000
 8000920:	7fffffc0 	.word	0x7fffffc0
 8000924:	3ffeffc0 	.word	0x3ffeffc0
 8000928:	08008cbc 	.word	0x08008cbc
 800092c:	08009d22 	.word	0x08009d22
 8000930:	40022300 	.word	0x40022300
  MODIFY_REG(*preg,
 8000934:	6b13      	ldr	r3, [r2, #48]	; 0x30
        LL_ADC_SetChannelSingleDiff(cfg->adc, LL_ADC_CHANNEL_15, LL_ADC_SINGLE_ENDED);
 8000936:	4937      	ldr	r1, [pc, #220]	; (8000a14 <currsmp_shunt_stm32_init+0x390>)
 8000938:	f423 63f8 	bic.w	r3, r3, #1984	; 0x7c0
 800093c:	f443 7370 	orr.w	r3, r3, #960	; 0x3c0
 8000940:	6313      	str	r3, [r2, #48]	; 0x30
  __IO uint32_t *preg = __ADC_PTR_REG_OFFSET(ADCx->SMPR1, ((Channel & ADC_CHANNEL_SMPRX_REGOFFSET_MASK) >> ADC_SMPRX_REGOFFSET_POS));
 8000942:	6822      	ldr	r2, [r4, #0]
  MODIFY_REG(*preg,
 8000944:	6993      	ldr	r3, [r2, #24]
 8000946:	f423 3360 	bic.w	r3, r3, #229376	; 0x38000
 800094a:	6193      	str	r3, [r2, #24]
 800094c:	6820      	ldr	r0, [r4, #0]
 800094e:	f7ff fe83 	bl	8000658 <LL_ADC_SetChannelSingleDiff.constprop.0>
        LL_ADC_SetChannelPreselection(cfg->adc, LL_ADC_CHANNEL_15);
 8000952:	4930      	ldr	r1, [pc, #192]	; (8000a14 <currsmp_shunt_stm32_init+0x390>)
 8000954:	6820      	ldr	r0, [r4, #0]
 8000956:	f7ff fe69 	bl	800062c <LL_ADC_SetChannelPreselection>
        LL_ADC_INJ_SetSequencerRanks(cfg->adc, LL_ADC_INJ_RANK_1, LL_ADC_CHANNEL_8);
 800095a:	6822      	ldr	r2, [r4, #0]
        LL_ADC_SetChannelSingleDiff(cfg->adc, LL_ADC_CHANNEL_8, LL_ADC_SINGLE_ENDED);
 800095c:	492e      	ldr	r1, [pc, #184]	; (8000a18 <currsmp_shunt_stm32_init+0x394>)
  MODIFY_REG(ADCx->JSQR,
 800095e:	6cd3      	ldr	r3, [r2, #76]	; 0x4c
 8000960:	f423 5378 	bic.w	r3, r3, #15872	; 0x3e00
 8000964:	f443 5380 	orr.w	r3, r3, #4096	; 0x1000
 8000968:	64d3      	str	r3, [r2, #76]	; 0x4c
        LL_ADC_SetChannelSamplingTime(cfg->adc, LL_ADC_CHANNEL_8, LL_ADC_SAMPLINGTIME_1CYCLE_5);
 800096a:	6822      	ldr	r2, [r4, #0]
  MODIFY_REG(*preg,
 800096c:	6953      	ldr	r3, [r2, #20]
 800096e:	f023 63e0 	bic.w	r3, r3, #117440512	; 0x7000000
 8000972:	6153      	str	r3, [r2, #20]
        LL_ADC_SetChannelSingleDiff(cfg->adc, LL_ADC_CHANNEL_8, LL_ADC_SINGLE_ENDED);
 8000974:	6820      	ldr	r0, [r4, #0]
 8000976:	f7ff fe6f 	bl	8000658 <LL_ADC_SetChannelSingleDiff.constprop.0>
        LL_ADC_INJ_SetSequencerRanks(cfg->adc, LL_ADC_INJ_RANK_2, LL_ADC_CHANNEL_9);
 800097a:	6822      	ldr	r2, [r4, #0]
        LL_ADC_SetChannelSingleDiff(cfg->adc, LL_ADC_CHANNEL_9, LL_ADC_SINGLE_ENDED);
 800097c:	4927      	ldr	r1, [pc, #156]	; (8000a1c <currsmp_shunt_stm32_init+0x398>)
  MODIFY_REG(ADCx->JSQR,
 800097e:	6cd3      	ldr	r3, [r2, #76]	; 0x4c
 8000980:	f423 2378 	bic.w	r3, r3, #1015808	; 0xf8000
 8000984:	f443 2390 	orr.w	r3, r3, #294912	; 0x48000
 8000988:	64d3      	str	r3, [r2, #76]	; 0x4c
        LL_ADC_SetChannelSamplingTime(cfg->adc, LL_ADC_CHANNEL_9, LL_ADC_SAMPLINGTIME_1CYCLE_5);
 800098a:	6822      	ldr	r2, [r4, #0]
  MODIFY_REG(*preg,
 800098c:	6953      	ldr	r3, [r2, #20]
 800098e:	f023 5360 	bic.w	r3, r3, #939524096	; 0x38000000
 8000992:	6153      	str	r3, [r2, #20]
        LL_ADC_SetChannelSingleDiff(cfg->adc, LL_ADC_CHANNEL_9, LL_ADC_SINGLE_ENDED);
 8000994:	6820      	ldr	r0, [r4, #0]
 8000996:	f7ff fe5f 	bl	8000658 <LL_ADC_SetChannelSingleDiff.constprop.0>
        LL_ADC_INJ_SetSequencerRanks(cfg->adc, LL_ADC_INJ_RANK_3, LL_ADC_CHANNEL_5);
 800099a:	6822      	ldr	r2, [r4, #0]
        LL_ADC_SetChannelSingleDiff(cfg->adc, LL_ADC_CHANNEL_5, LL_ADC_SINGLE_ENDED);       
 800099c:	4920      	ldr	r1, [pc, #128]	; (8000a20 <currsmp_shunt_stm32_init+0x39c>)
  MODIFY_REG(ADCx->JSQR,
 800099e:	6cd3      	ldr	r3, [r2, #76]	; 0x4c
 80009a0:	f023 7378 	bic.w	r3, r3, #65011712	; 0x3e00000
 80009a4:	f443 0320 	orr.w	r3, r3, #10485760	; 0xa00000
 80009a8:	64d3      	str	r3, [r2, #76]	; 0x4c
        LL_ADC_SetChannelSamplingTime(cfg->adc, LL_ADC_CHANNEL_5, LL_ADC_SAMPLINGTIME_1CYCLE_5);
 80009aa:	6822      	ldr	r2, [r4, #0]
  MODIFY_REG(*preg,
 80009ac:	6953      	ldr	r3, [r2, #20]
 80009ae:	f423 3360 	bic.w	r3, r3, #229376	; 0x38000
 80009b2:	6153      	str	r3, [r2, #20]
        LL_ADC_SetChannelSingleDiff(cfg->adc, LL_ADC_CHANNEL_5, LL_ADC_SINGLE_ENDED);       
 80009b4:	6820      	ldr	r0, [r4, #0]
 80009b6:	f7ff fe4f 	bl	8000658 <LL_ADC_SetChannelSingleDiff.constprop.0>
        LL_ADC_SetChannelPreselection(cfg->adc,LL_ADC_CHANNEL_8);
 80009ba:	4917      	ldr	r1, [pc, #92]	; (8000a18 <currsmp_shunt_stm32_init+0x394>)
 80009bc:	6820      	ldr	r0, [r4, #0]
 80009be:	f7ff fe35 	bl	800062c <LL_ADC_SetChannelPreselection>
        LL_ADC_SetChannelPreselection(cfg->adc,LL_ADC_CHANNEL_9);
 80009c2:	4916      	ldr	r1, [pc, #88]	; (8000a1c <currsmp_shunt_stm32_init+0x398>)
 80009c4:	6820      	ldr	r0, [r4, #0]
 80009c6:	f7ff fe31 	bl	800062c <LL_ADC_SetChannelPreselection>
        LL_ADC_SetChannelPreselection(cfg->adc,LL_ADC_CHANNEL_5);
 80009ca:	4915      	ldr	r1, [pc, #84]	; (8000a20 <currsmp_shunt_stm32_init+0x39c>)
 80009cc:	e74c      	b.n	8000868 <currsmp_shunt_stm32_init+0x1e4>
        LL_ADC_Disable(cfg->adc);
 80009ce:	6822      	ldr	r2, [r4, #0]
  MODIFY_REG(ADCx->CR,
 80009d0:	6893      	ldr	r3, [r2, #8]
 80009d2:	4033      	ands	r3, r6
 80009d4:	f043 0302 	orr.w	r3, r3, #2
 80009d8:	6093      	str	r3, [r2, #8]
        LL_ADC_StartCalibration(cfg->adc,LL_ADC_CALIB_OFFSET,LL_ADC_SINGLE_ENDED);
 80009da:	6822      	ldr	r2, [r4, #0]
  MODIFY_REG(ADCx->CR,
 80009dc:	6893      	ldr	r3, [r2, #8]
 80009de:	402b      	ands	r3, r5
 80009e0:	f043 4300 	orr.w	r3, r3, #2147483648	; 0x80000000
 80009e4:	6093      	str	r3, [r2, #8]
        while (LL_ADC_IsCalibrationOnGoing(cfg->adc));
 80009e6:	6822      	ldr	r2, [r4, #0]
  return ((READ_BIT(ADCx->CR, ADC_CR_ADCAL) == (ADC_CR_ADCAL)) ? 1UL : 0UL);
 80009e8:	6893      	ldr	r3, [r2, #8]
 80009ea:	2b00      	cmp	r3, #0
 80009ec:	dbfc      	blt.n	80009e8 <currsmp_shunt_stm32_init+0x364>
  MODIFY_REG(ADCx->CR,
 80009ee:	6893      	ldr	r3, [r2, #8]
 80009f0:	f023 4300 	bic.w	r3, r3, #2147483648	; 0x80000000
 80009f4:	f023 033f 	bic.w	r3, r3, #63	; 0x3f
 80009f8:	f043 0301 	orr.w	r3, r3, #1
 80009fc:	6093      	str	r3, [r2, #8]
         while (LL_ADC_IsActiveFlag_ADRDY(cfg->adc) == 0);      
 80009fe:	6822      	ldr	r2, [r4, #0]
  return ((READ_BIT(ADCx->ISR, LL_ADC_FLAG_ADRDY) == (LL_ADC_FLAG_ADRDY)) ? 1UL : 0UL);
 8000a00:	6813      	ldr	r3, [r2, #0]
 8000a02:	07db      	lsls	r3, r3, #31
 8000a04:	d5fc      	bpl.n	8000a00 <currsmp_shunt_stm32_init+0x37c>
  * @param  ADCx ADC instance
  * @retval None
  */
__STATIC_INLINE void LL_ADC_DisableIT_JEOS(ADC_TypeDef *ADCx)
{
  CLEAR_BIT(ADCx->IER, LL_ADC_IT_JEOS);
 8000a06:	4a07      	ldr	r2, [pc, #28]	; (8000a24 <currsmp_shunt_stm32_init+0x3a0>)
 8000a08:	6853      	ldr	r3, [r2, #4]
 8000a0a:	f023 0340 	bic.w	r3, r3, #64	; 0x40
 8000a0e:	6053      	str	r3, [r2, #4]
}
 8000a10:	e75f      	b.n	80008d2 <currsmp_shunt_stm32_init+0x24e>
 8000a12:	bf00      	nop
 8000a14:	3ef08000 	.word	0x3ef08000
 8000a18:	21800100 	.word	0x21800100
 8000a1c:	25b00200 	.word	0x25b00200
 8000a20:	14f00020 	.word	0x14f00020
 8000a24:	40022100 	.word	0x40022100

08000a28 <pwm_stm32_start>:
	{
	}else{
	}
}
static void pwm_stm32_start(const struct device *dev)
{
 8000a28:	b510      	push	{r4, lr}
	const struct pwm_stm32_config *cfg = dev->config;
 8000a2a:	6844      	ldr	r4, [r0, #4]
	uint32_t slave_flag;
	slave_flag = cfg->slave_enable;

	if(!slave_flag)
 8000a2c:	69e3      	ldr	r3, [r4, #28]
 8000a2e:	b9db      	cbnz	r3, 8000a68 <pwm_stm32_start+0x40>
 8000a30:	4a15      	ldr	r2, [pc, #84]	; (8000a88 <pwm_stm32_start+0x60>)
 8000a32:	2103      	movs	r1, #3
 8000a34:	4815      	ldr	r0, [pc, #84]	; (8000a8c <pwm_stm32_start+0x64>)
 8000a36:	f006 fdb5 	bl	80075a4 <z_impl_z_log_msg_simple_create_0>
	{
		LOG_INF("master timer");
		LL_TIM_EnableAllOutputs(cfg->timer);
 8000a3a:	6822      	ldr	r2, [r4, #0]
  * @param  TIMx Timer instance
  * @retval None
  */
__STATIC_INLINE void LL_TIM_EnableAllOutputs(TIM_TypeDef *TIMx)
{
  SET_BIT(TIMx->BDTR, TIM_BDTR_MOE);
 8000a3c:	6c53      	ldr	r3, [r2, #68]	; 0x44
 8000a3e:	f443 4300 	orr.w	r3, r3, #32768	; 0x8000
 8000a42:	6453      	str	r3, [r2, #68]	; 0x44
		LL_TIM_EnableCounter(cfg->timer);
 8000a44:	6822      	ldr	r2, [r4, #0]
  SET_BIT(TIMx->CR1, TIM_CR1_CEN);
 8000a46:	6813      	ldr	r3, [r2, #0]
 8000a48:	f043 0301 	orr.w	r3, r3, #1
 8000a4c:	6013      	str	r3, [r2, #0]

		// LL_TIM_OC_SetCompareCH1(cfg->timer, (uint32_t)(cfg->timing_params[1]*0.5f));
		// LL_TIM_OC_SetCompareCH2(cfg->timer, (uint32_t)(cfg->timing_params[1]*0.5f));
		// LL_TIM_OC_SetCompareCH3(cfg->timer, (uint32_t)(cfg->timing_params[1]*0.5f));
		// LL_TIM_OC_SetCompareCH4(cfg->timer, (uint32_t)(cfg->timing_params[1]-200));//首次触发ADC
		LL_TIM_CC_EnableChannel(cfg->timer,LL_TIM_CHANNEL_CH4);
 8000a4e:	6822      	ldr	r2, [r4, #0]
  SET_BIT(TIMx->CCER, Channels);
 8000a50:	6a13      	ldr	r3, [r2, #32]
 8000a52:	f443 5380 	orr.w	r3, r3, #4096	; 0x1000
 8000a56:	6213      	str	r3, [r2, #32]
		// LL_TIM_OC_SetCompareCH2(cfg->timer, (uint32_t)(cfg->timing_params[1]*0.5f));
		// LL_TIM_OC_SetCompareCH3(cfg->timer, (uint32_t)(cfg->timing_params[1]*0.5f));		
		LL_TIM_OC_SetCompareCH4(TIM1, (uint32_t)(cfg->timing_params[1]-200));//首次触发ADC		
		LL_TIM_EnableAllOutputs(cfg->timer);	
	}
	LL_TIM_CC_EnableChannel(cfg->timer,\
 8000a58:	6822      	ldr	r2, [r4, #0]
 8000a5a:	6a13      	ldr	r3, [r2, #32]
 8000a5c:	f443 738a 	orr.w	r3, r3, #276	; 0x114
 8000a60:	f043 0301 	orr.w	r3, r3, #1
 8000a64:	6213      	str	r3, [r2, #32]
							LL_TIM_CHANNEL_CH1 | LL_TIM_CHANNEL_CH2 | LL_TIM_CHANNEL_CH3 |\
							LL_TIM_CHANNEL_CH1N| LL_TIM_CHANNEL_CH1N| LL_TIM_CHANNEL_CH1N);  
}
 8000a66:	bd10      	pop	{r4, pc}
 8000a68:	4a09      	ldr	r2, [pc, #36]	; (8000a90 <pwm_stm32_start+0x68>)
 8000a6a:	2103      	movs	r1, #3
 8000a6c:	4807      	ldr	r0, [pc, #28]	; (8000a8c <pwm_stm32_start+0x64>)
 8000a6e:	f006 fd99 	bl	80075a4 <z_impl_z_log_msg_simple_create_0>
		LL_TIM_OC_SetCompareCH4(TIM1, (uint32_t)(cfg->timing_params[1]-200));//首次触发ADC		
 8000a72:	6963      	ldr	r3, [r4, #20]
  WRITE_REG(TIMx->CCR4, CompareValue);
 8000a74:	4a07      	ldr	r2, [pc, #28]	; (8000a94 <pwm_stm32_start+0x6c>)
 8000a76:	3bc8      	subs	r3, #200	; 0xc8
 8000a78:	6413      	str	r3, [r2, #64]	; 0x40
		LL_TIM_EnableAllOutputs(cfg->timer);	
 8000a7a:	6822      	ldr	r2, [r4, #0]
  SET_BIT(TIMx->BDTR, TIM_BDTR_MOE);
 8000a7c:	6c53      	ldr	r3, [r2, #68]	; 0x44
 8000a7e:	f443 4300 	orr.w	r3, r3, #32768	; 0x8000
 8000a82:	6453      	str	r3, [r2, #68]	; 0x44
}
 8000a84:	e7e8      	b.n	8000a58 <pwm_stm32_start+0x30>
 8000a86:	bf00      	nop
 8000a88:	08009d57 	.word	0x08009d57
 8000a8c:	08008cfc 	.word	0x08008cfc
 8000a90:	08009d64 	.word	0x08009d64
 8000a94:	40010000 	.word	0x40010000

08000a98 <pwm_stm32_init>:
 * @FuncName     
 * @param        dev 
 * @version      0.1
--------------------------------------------------------------------------------------------*/
static int pwm_stm32_init(const struct device *dev)
{
 8000a98:	e92d 41f0 	stmdb	sp!, {r4, r5, r6, r7, r8, lr}
 8000a9c:	b09a      	sub	sp, #104	; 0x68
    const struct pwm_stm32_config *config = dev->config;
 8000a9e:	6845      	ldr	r5, [r0, #4]
	ret = pinctrl_lookup_state(config, id, &state);
 8000aa0:	2100      	movs	r1, #0
 8000aa2:	aa0e      	add	r2, sp, #56	; 0x38
 8000aa4:	68e8      	ldr	r0, [r5, #12]
 8000aa6:	f007 f836 	bl	8007b16 <pinctrl_lookup_state>
	if (ret < 0) {
 8000aaa:	1e04      	subs	r4, r0, #0
 8000aac:	db07      	blt.n	8000abe <pwm_stm32_init+0x26>
	return pinctrl_apply_state_direct(config, state);
 8000aae:	9b0e      	ldr	r3, [sp, #56]	; 0x38
	return pinctrl_configure_pins(state->pins, state->pin_cnt, reg);
 8000ab0:	2200      	movs	r2, #0
 8000ab2:	7919      	ldrb	r1, [r3, #4]
 8000ab4:	6818      	ldr	r0, [r3, #0]
 8000ab6:	f002 ff5b 	bl	8003970 <pinctrl_configure_pins>
	LL_TIM_OC_InitTypeDef tim_ocinit;
	LL_TIM_BDTR_InitTypeDef brk_dt_init;

	/* configure pinmux */
	ret = pinctrl_apply_state(config->pincfg, PINCTRL_STATE_DEFAULT);
	if (ret < 0) {
 8000aba:	1e04      	subs	r4, r0, #0
 8000abc:	da09      	bge.n	8000ad2 <pwm_stm32_init+0x3a>
		(void) arch_syscall_invoke4(parm0.x, parm1.x, parm2.x, parm3.x, K_SYSCALL_Z_LOG_MSG_SIMPLE_CREATE_1);
		return;
	}
#endif
	compiler_barrier();
	z_impl_z_log_msg_simple_create_1(source, level, fmt, arg);
 8000abe:	4a6b      	ldr	r2, [pc, #428]	; (8000c6c <pwm_stm32_init+0x1d4>)
 8000ac0:	4623      	mov	r3, r4
 8000ac2:	2101      	movs	r1, #1
 8000ac4:	486a      	ldr	r0, [pc, #424]	; (8000c70 <pwm_stm32_init+0x1d8>)
 8000ac6:	f006 fd76 	bl	80075b6 <z_impl_z_log_msg_simple_create_1>
	brk_dt_init.Break2Filter = LL_TIM_BREAK2_FILTER_FDIV1;
	brk_dt_init.AutomaticOutput = LL_TIM_AUTOMATICOUTPUT_DISABLE;
	LL_TIM_BDTR_Init(config->timer, &brk_dt_init);
	LOG_INF("pwm_stm32_init Finish");
	return 0;
}
 8000aca:	4620      	mov	r0, r4
 8000acc:	b01a      	add	sp, #104	; 0x68
 8000ace:	e8bd 81f0 	ldmia.w	sp!, {r4, r5, r6, r7, r8, pc}
	const struct clock_control_driver_api *api =
 8000ad2:	4e68      	ldr	r6, [pc, #416]	; (8000c74 <pwm_stm32_init+0x1dc>)
	ret = clock_control_on(clk, (clock_control_subsys_t *)&config->pclken);
 8000ad4:	1d2f      	adds	r7, r5, #4
 8000ad6:	f8d6 8008 	ldr.w	r8, [r6, #8]
	return api->on(dev, sys);
 8000ada:	4639      	mov	r1, r7
 8000adc:	4630      	mov	r0, r6
 8000ade:	f8d8 3000 	ldr.w	r3, [r8]
 8000ae2:	4798      	blx	r3
	if (ret < 0) {
 8000ae4:	1e04      	subs	r4, r0, #0
 8000ae6:	da02      	bge.n	8000aee <pwm_stm32_init+0x56>
 8000ae8:	4a63      	ldr	r2, [pc, #396]	; (8000c78 <pwm_stm32_init+0x1e0>)
 8000aea:	4623      	mov	r3, r4
 8000aec:	e7e9      	b.n	8000ac2 <pwm_stm32_init+0x2a>
					 uint32_t *rate)
{
	const struct clock_control_driver_api *api =
		(const struct clock_control_driver_api *)dev->api;

	if (api->get_rate == NULL) {
 8000aee:	f8d8 300c 	ldr.w	r3, [r8, #12]
 8000af2:	b9db      	cbnz	r3, 8000b2c <pwm_stm32_init+0x94>
 8000af4:	4a61      	ldr	r2, [pc, #388]	; (8000c7c <pwm_stm32_init+0x1e4>)
 8000af6:	4623      	mov	r3, r4
 8000af8:	2101      	movs	r1, #1
 8000afa:	485d      	ldr	r0, [pc, #372]	; (8000c70 <pwm_stm32_init+0x1d8>)
 8000afc:	f006 fd5b 	bl	80075b6 <z_impl_z_log_msg_simple_create_1>
	tim_init.CounterMode = LL_TIM_COUNTERMODE_CENTER_UP;
 8000b00:	2340      	movs	r3, #64	; 0x40
	if (LL_TIM_Init(config->timer, &tim_init) != SUCCESS) {
 8000b02:	a901      	add	r1, sp, #4
	tim_init.CounterMode = LL_TIM_COUNTERMODE_CENTER_UP;
 8000b04:	9302      	str	r3, [sp, #8]
    tim_init.Autoreload = config->timing_params[1];  // arr
 8000b06:	696b      	ldr	r3, [r5, #20]
 8000b08:	9303      	str	r3, [sp, #12]
    tim_init.Prescaler = config->timing_params[2];   // psc
 8000b0a:	69ab      	ldr	r3, [r5, #24]
 8000b0c:	f8ad 3004 	strh.w	r3, [sp, #4]
	tim_init.RepetitionCounter = 0U;
 8000b10:	2300      	movs	r3, #0
 8000b12:	9305      	str	r3, [sp, #20]
	if (LL_TIM_Init(config->timer, &tim_init) != SUCCESS) {
 8000b14:	6828      	ldr	r0, [r5, #0]
 8000b16:	f003 fbe7 	bl	80042e8 <LL_TIM_Init>
 8000b1a:	b170      	cbz	r0, 8000b3a <pwm_stm32_init+0xa2>
	z_impl_z_log_msg_simple_create_0(source, level, fmt);
 8000b1c:	4a58      	ldr	r2, [pc, #352]	; (8000c80 <pwm_stm32_init+0x1e8>)
 8000b1e:	2101      	movs	r1, #1
 8000b20:	4853      	ldr	r0, [pc, #332]	; (8000c70 <pwm_stm32_init+0x1d8>)
		return -EIO;
 8000b22:	f06f 0404 	mvn.w	r4, #4
 8000b26:	f006 fd3d 	bl	80075a4 <z_impl_z_log_msg_simple_create_0>
}
 8000b2a:	e7ce      	b.n	8000aca <pwm_stm32_init+0x32>
		return -ENOSYS;
	}

	return api->get_rate(dev, sys, rate);
 8000b2c:	466a      	mov	r2, sp
 8000b2e:	4639      	mov	r1, r7
 8000b30:	4630      	mov	r0, r6
 8000b32:	4798      	blx	r3
	if(clock_control_get_rate(clk, (clock_control_subsys_t *)&config->pclken, &rate))
 8000b34:	2800      	cmp	r0, #0
 8000b36:	d0e3      	beq.n	8000b00 <pwm_stm32_init+0x68>
 8000b38:	e7dc      	b.n	8000af4 <pwm_stm32_init+0x5c>
	LL_TIM_DisableARRPreload(config->timer);
 8000b3a:	682a      	ldr	r2, [r5, #0]
  CLEAR_BIT(TIMx->CR1, TIM_CR1_ARPE);
 8000b3c:	6813      	ldr	r3, [r2, #0]
 8000b3e:	f023 0380 	bic.w	r3, r3, #128	; 0x80
 8000b42:	6013      	str	r3, [r2, #0]
	if(!config->slave_enable)
 8000b44:	69eb      	ldr	r3, [r5, #28]
 8000b46:	b933      	cbnz	r3, 8000b56 <pwm_stm32_init+0xbe>
		LL_TIM_SetClockSource(config->timer, LL_TIM_CLOCKSOURCE_INTERNAL);
 8000b48:	682a      	ldr	r2, [r5, #0]
  MODIFY_REG(TIMx->SMCR, TIM_SMCR_SMS | TIM_SMCR_ECE, ClockSource);
 8000b4a:	6893      	ldr	r3, [r2, #8]
 8000b4c:	f423 33a0 	bic.w	r3, r3, #81920	; 0x14000
 8000b50:	f023 0307 	bic.w	r3, r3, #7
 8000b54:	6093      	str	r3, [r2, #8]
	LL_TIM_OC_EnablePreload(config->timer, LL_TIM_CHANNEL_CH1);
 8000b56:	682a      	ldr	r2, [r5, #0]
	LL_TIM_OC_Init(config->timer, LL_TIM_CHANNEL_CH1, &tim_ocinit);
 8000b58:	2101      	movs	r1, #1
  SET_BIT(*pReg, (TIM_CCMR1_OC1PE << SHIFT_TAB_OCxx[iChannel]));
 8000b5a:	6993      	ldr	r3, [r2, #24]
 8000b5c:	f043 0308 	orr.w	r3, r3, #8
 8000b60:	6193      	str	r3, [r2, #24]
	tim_ocinit.OCState = LL_TIM_OCSTATE_DISABLE;
 8000b62:	2300      	movs	r3, #0
 8000b64:	2260      	movs	r2, #96	; 0x60
	tim_ocinit.OCPolarity = LL_TIM_OCPOLARITY_HIGH;
 8000b66:	930a      	str	r3, [sp, #40]	; 0x28
	tim_ocinit.OCNIdleState = LL_TIM_OCIDLESTATE_LOW;
 8000b68:	930d      	str	r3, [sp, #52]	; 0x34
	tim_ocinit.OCState = LL_TIM_OCSTATE_DISABLE;
 8000b6a:	e9cd 2306 	strd	r2, r3, [sp, #24]
	tim_ocinit.OCNPolarity = LL_TIM_OCPOLARITY_LOW;
 8000b6e:	2202      	movs	r2, #2
	tim_ocinit.CompareValue = 0;
 8000b70:	e9cd 3308 	strd	r3, r3, [sp, #32]
	tim_ocinit.OCIdleState = LL_TIM_OCIDLESTATE_LOW;
 8000b74:	e9cd 230b 	strd	r2, r3, [sp, #44]	; 0x2c
	LL_TIM_OC_Init(config->timer, LL_TIM_CHANNEL_CH1, &tim_ocinit);
 8000b78:	aa06      	add	r2, sp, #24
 8000b7a:	6828      	ldr	r0, [r5, #0]
 8000b7c:	f003 fc12 	bl	80043a4 <LL_TIM_OC_Init>
	LL_TIM_OC_DisableFast(config->timer, LL_TIM_CHANNEL_CH1);
 8000b80:	682a      	ldr	r2, [r5, #0]
	LL_TIM_OC_Init(config->timer, LL_TIM_CHANNEL_CH2, &tim_ocinit);
 8000b82:	2110      	movs	r1, #16
  CLEAR_BIT(*pReg, (TIM_CCMR1_OC1FE << SHIFT_TAB_OCxx[iChannel]));
 8000b84:	6993      	ldr	r3, [r2, #24]
 8000b86:	f023 0304 	bic.w	r3, r3, #4
 8000b8a:	6193      	str	r3, [r2, #24]
	LL_TIM_OC_EnablePreload(config->timer, LL_TIM_CHANNEL_CH2);
 8000b8c:	682a      	ldr	r2, [r5, #0]
  SET_BIT(*pReg, (TIM_CCMR1_OC1PE << SHIFT_TAB_OCxx[iChannel]));
 8000b8e:	6993      	ldr	r3, [r2, #24]
 8000b90:	f443 6300 	orr.w	r3, r3, #2048	; 0x800
 8000b94:	6193      	str	r3, [r2, #24]
	LL_TIM_OC_Init(config->timer, LL_TIM_CHANNEL_CH2, &tim_ocinit);
 8000b96:	aa06      	add	r2, sp, #24
 8000b98:	6828      	ldr	r0, [r5, #0]
 8000b9a:	f003 fc03 	bl	80043a4 <LL_TIM_OC_Init>
	LL_TIM_OC_DisableFast(config->timer, LL_TIM_CHANNEL_CH2);
 8000b9e:	682a      	ldr	r2, [r5, #0]
	LL_TIM_OC_Init(config->timer, LL_TIM_CHANNEL_CH3, &tim_ocinit);
 8000ba0:	f44f 7180 	mov.w	r1, #256	; 0x100
  CLEAR_BIT(*pReg, (TIM_CCMR1_OC1FE << SHIFT_TAB_OCxx[iChannel]));
 8000ba4:	6993      	ldr	r3, [r2, #24]
 8000ba6:	f423 6380 	bic.w	r3, r3, #1024	; 0x400
 8000baa:	6193      	str	r3, [r2, #24]
  __IO uint32_t *pReg = (__IO uint32_t *)((uint32_t)((uint32_t)(&TIMx->CCMR1) + OFFSET_TAB_CCMRx[iChannel]));
 8000bac:	682a      	ldr	r2, [r5, #0]
  SET_BIT(*pReg, (TIM_CCMR1_OC1PE << SHIFT_TAB_OCxx[iChannel]));
 8000bae:	69d3      	ldr	r3, [r2, #28]
 8000bb0:	f043 0308 	orr.w	r3, r3, #8
 8000bb4:	61d3      	str	r3, [r2, #28]
 8000bb6:	aa06      	add	r2, sp, #24
 8000bb8:	6828      	ldr	r0, [r5, #0]
 8000bba:	f003 fbf3 	bl	80043a4 <LL_TIM_OC_Init>
  __IO uint32_t *pReg = (__IO uint32_t *)((uint32_t)((uint32_t)(&TIMx->CCMR1) + OFFSET_TAB_CCMRx[iChannel]));
 8000bbe:	682a      	ldr	r2, [r5, #0]
	LL_TIM_OC_Init(config->timer, LL_TIM_CHANNEL_CH4, &tim_ocinit);
 8000bc0:	f44f 5180 	mov.w	r1, #4096	; 0x1000
  CLEAR_BIT(*pReg, (TIM_CCMR1_OC1FE << SHIFT_TAB_OCxx[iChannel]));
 8000bc4:	69d3      	ldr	r3, [r2, #28]
 8000bc6:	f023 0304 	bic.w	r3, r3, #4
 8000bca:	61d3      	str	r3, [r2, #28]
  __IO uint32_t *pReg = (__IO uint32_t *)((uint32_t)((uint32_t)(&TIMx->CCMR1) + OFFSET_TAB_CCMRx[iChannel]));
 8000bcc:	682a      	ldr	r2, [r5, #0]
  SET_BIT(*pReg, (TIM_CCMR1_OC1PE << SHIFT_TAB_OCxx[iChannel]));
 8000bce:	69d3      	ldr	r3, [r2, #28]
 8000bd0:	f443 6300 	orr.w	r3, r3, #2048	; 0x800
 8000bd4:	61d3      	str	r3, [r2, #28]
 8000bd6:	aa06      	add	r2, sp, #24
 8000bd8:	6828      	ldr	r0, [r5, #0]
 8000bda:	f003 fbe3 	bl	80043a4 <LL_TIM_OC_Init>
  __IO uint32_t *pReg = (__IO uint32_t *)((uint32_t)((uint32_t)(&TIMx->CCMR1) + OFFSET_TAB_CCMRx[iChannel]));
 8000bde:	682a      	ldr	r2, [r5, #0]
  CLEAR_BIT(*pReg, (TIM_CCMR1_OC1FE << SHIFT_TAB_OCxx[iChannel]));
 8000be0:	69d3      	ldr	r3, [r2, #28]
 8000be2:	f423 6380 	bic.w	r3, r3, #1024	; 0x400
 8000be6:	61d3      	str	r3, [r2, #28]
	if(!config->slave_enable)
 8000be8:	69eb      	ldr	r3, [r5, #28]
 8000bea:	682a      	ldr	r2, [r5, #0]
 8000bec:	bb73      	cbnz	r3, 8000c4c <pwm_stm32_init+0x1b4>
  MODIFY_REG(TIMx->CR2, TIM_CR2_MMS, TimerSynchronization);
 8000bee:	6853      	ldr	r3, [r2, #4]
 8000bf0:	f023 0370 	bic.w	r3, r3, #112	; 0x70
 8000bf4:	f043 0310 	orr.w	r3, r3, #16
 8000bf8:	6053      	str	r3, [r2, #4]
		LL_TIM_SetTriggerOutput2(config->timer, LL_TIM_TRGO2_OC4);
 8000bfa:	682a      	ldr	r2, [r5, #0]
  MODIFY_REG(TIMx->CR2, TIM_CR2_MMS2, ADCSynchronization);
 8000bfc:	6853      	ldr	r3, [r2, #4]
 8000bfe:	f423 0370 	bic.w	r3, r3, #15728640	; 0xf00000
 8000c02:	f443 03e0 	orr.w	r3, r3, #7340032	; 0x700000
 8000c06:	6053      	str	r3, [r2, #4]
		LL_TIM_EnableMasterSlaveMode(config->timer);
 8000c08:	682a      	ldr	r2, [r5, #0]
  SET_BIT(TIMx->SMCR, TIM_SMCR_MSM);
 8000c0a:	6893      	ldr	r3, [r2, #8]
 8000c0c:	f043 0380 	orr.w	r3, r3, #128	; 0x80
	brk_dt_init.OSSRState = LL_TIM_OSSR_DISABLE;
 8000c10:	2400      	movs	r4, #0
  MODIFY_REG(TIMx->SMCR, TIM_SMCR_SMS, SlaveMode);
 8000c12:	6093      	str	r3, [r2, #8]
	LL_TIM_BDTR_Init(config->timer, &brk_dt_init);
 8000c14:	a90e      	add	r1, sp, #56	; 0x38
	brk_dt_init.LockLevel = LL_TIM_LOCKLEVEL_OFF;
 8000c16:	9410      	str	r4, [sp, #64]	; 0x40
	brk_dt_init.OSSIState = LL_TIM_OSSI_DISABLE;
 8000c18:	e9cd 440e 	strd	r4, r4, [sp, #56]	; 0x38
    brk_dt_init.DeadTime = config->timing_params[0];  // t_dead_ns
 8000c1c:	692b      	ldr	r3, [r5, #16]
	brk_dt_init.BreakState = LL_TIM_BREAK_DISABLE;
 8000c1e:	f8ad 4046 	strh.w	r4, [sp, #70]	; 0x46
    brk_dt_init.DeadTime = config->timing_params[0];  // t_dead_ns
 8000c22:	f88d 3044 	strb.w	r3, [sp, #68]	; 0x44
	brk_dt_init.BreakPolarity = LL_TIM_BREAK_POLARITY_HIGH;
 8000c26:	f44f 5300 	mov.w	r3, #8192	; 0x2000
	brk_dt_init.Break2State = LL_TIM_BREAK2_DISABLE;
 8000c2a:	9415      	str	r4, [sp, #84]	; 0x54
	brk_dt_init.AutomaticOutput = LL_TIM_AUTOMATICOUTPUT_DISABLE;
 8000c2c:	9419      	str	r4, [sp, #100]	; 0x64
	brk_dt_init.BreakFilter = LL_TIM_BREAK_FILTER_FDIV1;
 8000c2e:	e9cd 3412 	strd	r3, r4, [sp, #72]	; 0x48
	brk_dt_init.Break2Polarity = LL_TIM_BREAK2_POLARITY_HIGH;
 8000c32:	f04f 7300 	mov.w	r3, #33554432	; 0x2000000
	brk_dt_init.Break2Filter = LL_TIM_BREAK2_FILTER_FDIV1;
 8000c36:	e9cd 3416 	strd	r3, r4, [sp, #88]	; 0x58
	LL_TIM_BDTR_Init(config->timer, &brk_dt_init);
 8000c3a:	6828      	ldr	r0, [r5, #0]
 8000c3c:	f003 fd34 	bl	80046a8 <LL_TIM_BDTR_Init>
	z_impl_z_log_msg_simple_create_0(source, level, fmt);
 8000c40:	4a10      	ldr	r2, [pc, #64]	; (8000c84 <pwm_stm32_init+0x1ec>)
 8000c42:	2103      	movs	r1, #3
 8000c44:	480a      	ldr	r0, [pc, #40]	; (8000c70 <pwm_stm32_init+0x1d8>)
 8000c46:	f006 fcad 	bl	80075a4 <z_impl_z_log_msg_simple_create_0>
}
 8000c4a:	e73e      	b.n	8000aca <pwm_stm32_init+0x32>
  MODIFY_REG(TIMx->SMCR, TIM_SMCR_TS, TriggerInput);
 8000c4c:	6893      	ldr	r3, [r2, #8]
 8000c4e:	f423 1340 	bic.w	r3, r3, #3145728	; 0x300000
 8000c52:	f023 0370 	bic.w	r3, r3, #112	; 0x70
 8000c56:	6093      	str	r3, [r2, #8]
  		LL_TIM_SetSlaveMode(config->timer, LL_TIM_SLAVEMODE_TRIGGER);
 8000c58:	682a      	ldr	r2, [r5, #0]
  MODIFY_REG(TIMx->SMCR, TIM_SMCR_SMS, SlaveMode);
 8000c5a:	6893      	ldr	r3, [r2, #8]
 8000c5c:	f423 3380 	bic.w	r3, r3, #65536	; 0x10000
 8000c60:	f023 0307 	bic.w	r3, r3, #7
 8000c64:	f043 0306 	orr.w	r3, r3, #6
 8000c68:	e7d2      	b.n	8000c10 <pwm_stm32_init+0x178>
 8000c6a:	bf00      	nop
 8000c6c:	08009d70 	.word	0x08009d70
 8000c70:	08008cfc 	.word	0x08008cfc
 8000c74:	0800855c 	.word	0x0800855c
 8000c78:	08009d8a 	.word	0x08009d8a
 8000c7c:	08009dad 	.word	0x08009dad
 8000c80:	08009dc9 	.word	0x08009dc9
 8000c84:	08009de4 	.word	0x08009de4

08000c88 <abz_stm32_get_eangle>:
  * API
  ******************************************************************************/
  static float abz_stm32_get_eangle(const struct device *dev)
  {
	  return 0.0f; 
  }
 8000c88:	ed9f 0a01 	vldr	s0, [pc, #4]	; 8000c90 <abz_stm32_get_eangle+0x8>
 8000c8c:	4770      	bx	lr
 8000c8e:	bf00      	nop
 8000c90:	00000000 	.word	0x00000000

08000c94 <abz_stm32_get_rads>:
  static float abz_stm32_get_mangle(const struct device *dev)
  {
	  return 0.0f;
  }

  static float abz_stm32_get_rads(const struct device *dev)
 8000c94:	ed9f 0a01 	vldr	s0, [pc, #4]	; 8000c9c <abz_stm32_get_rads+0x8>
 8000c98:	4770      	bx	lr
 8000c9a:	bf00      	nop
 8000c9c:	00000000 	.word	0x00000000

08000ca0 <hall_gpio_callback>:
  * Init
  ******************************************************************************/
  static void hall_gpio_callback(const struct device *port,
                              struct gpio_callback *cb,
                              uint32_t pins)
 {
 8000ca0:	e92d 41f0 	stmdb	sp!, {r4, r5, r6, r7, r8, lr}
 
     ARG_UNUSED(port);
     ARG_UNUSED(pins);

     const struct device *dev = data->dev;
     const struct abz_hall_stm32_config *cfg = dev->config;
 8000ca4:	68cb      	ldr	r3, [r1, #12]
 {
 8000ca6:	af00      	add	r7, sp, #0
 8000ca8:	460d      	mov	r5, r1
     const struct abz_hall_stm32_config *cfg = dev->config;
 8000caa:	f8d3 8004 	ldr.w	r8, [r3, #4]

     int hu_state = gpio_pin_get_dt(&cfg->hu_gpio);
 8000cae:	f108 0018 	add.w	r0, r8, #24
 8000cb2:	f005 ffc4 	bl	8006c3e <gpio_pin_get_dt>
 8000cb6:	4604      	mov	r4, r0
     int hv_state = gpio_pin_get_dt(&cfg->hv_gpio);
 8000cb8:	f108 0020 	add.w	r0, r8, #32
 8000cbc:	f005 ffbf 	bl	8006c3e <gpio_pin_get_dt>
 8000cc0:	4606      	mov	r6, r0
     int hw_state = gpio_pin_get_dt(&cfg->hw_gpio);
 8000cc2:	f108 0028 	add.w	r0, r8, #40	; 0x28
     LOG_DBG("Hall states - HALL_VAL:%d", hu_state<<2|hv_state<<1|hw_state);
 8000cc6:	00a4      	lsls	r4, r4, #2
     int hw_state = gpio_pin_get_dt(&cfg->hw_gpio);
 8000cc8:	f005 ffb9 	bl	8006c3e <gpio_pin_get_dt>
     LOG_DBG("Hall states - HALL_VAL:%d", hu_state<<2|hv_state<<1|hw_state);
 8000ccc:	b088      	sub	sp, #32
 8000cce:	0076      	lsls	r6, r6, #1
 8000cd0:	466a      	mov	r2, sp
 8000cd2:	4b0b      	ldr	r3, [pc, #44]	; (8000d00 <hall_gpio_callback+0x60>)
 8000cd4:	4334      	orrs	r4, r6
 8000cd6:	6153      	str	r3, [r2, #20]
 8000cd8:	4304      	orrs	r4, r0
 8000cda:	4b0a      	ldr	r3, [pc, #40]	; (8000d04 <hall_gpio_callback+0x64>)
 8000cdc:	61d4      	str	r4, [r2, #28]
 8000cde:	6193      	str	r3, [r2, #24]
 8000ce0:	2304      	movs	r3, #4
 8000ce2:	f842 3f10 	str.w	r3, [r2, #16]!
		(void) arch_syscall_invoke4(parm0.x, parm1.x, parm2.x, parm3.x, K_SYSCALL_Z_LOG_MSG_STATIC_CREATE);
		return;
	}
#endif
	compiler_barrier();
	z_impl_z_log_msg_static_create(source, desc, package, data);
 8000ce6:	2300      	movs	r3, #0
 8000ce8:	f44f 5104 	mov.w	r1, #8448	; 0x2100
 8000cec:	4806      	ldr	r0, [pc, #24]	; (8000d08 <hall_gpio_callback+0x68>)
 8000cee:	f001 f955 	bl	8001f9c <z_impl_z_log_msg_static_create>

     data->pre_sect = data->cur_sect;
 8000cf2:	7c2b      	ldrb	r3, [r5, #16]
     data->cur_sect = hu_state<<2|hv_state<<1|hw_state;
 8000cf4:	742c      	strb	r4, [r5, #16]
     data->pre_sect = data->cur_sect;
 8000cf6:	746b      	strb	r3, [r5, #17]
 }
 8000cf8:	46bd      	mov	sp, r7
 8000cfa:	e8bd 81f0 	ldmia.w	sp!, {r4, r5, r6, r7, r8, pc}
 8000cfe:	bf00      	nop
 8000d00:	08009e08 	.word	0x08009e08
 8000d04:	08009e76 	.word	0x08009e76
 8000d08:	08008cac 	.word	0x08008cac

08000d0c <abz_stm32_get_position>:
  static float abz_stm32_get_position(const struct device *dev)
 8000d0c:	ed9f 0a01 	vldr	s0, [pc, #4]	; 8000d14 <abz_stm32_get_position+0x8>
 8000d10:	4770      	bx	lr
 8000d12:	bf00      	nop
 8000d14:	00000000 	.word	0x00000000

08000d18 <abz_stm32_get_mangle>:
  static float abz_stm32_get_mangle(const struct device *dev)
 8000d18:	ed9f 0a01 	vldr	s0, [pc, #4]	; 8000d20 <abz_stm32_get_mangle+0x8>
 8000d1c:	4770      	bx	lr
 8000d1e:	bf00      	nop
 8000d20:	00000000 	.word	0x00000000

08000d24 <stm32_abz_hall_init>:
    //      return ret;
    //  }
     return 0;
}
static int stm32_abz_hall_init(const struct device *dev)
{
 8000d24:	e92d 47f0 	stmdb	sp!, {r4, r5, r6, r7, r8, r9, sl, lr}
 8000d28:	b086      	sub	sp, #24
 8000d2a:	6844      	ldr	r4, [r0, #4]
 8000d2c:	4606      	mov	r6, r0
	ret = pinctrl_lookup_state(config, id, &state);
 8000d2e:	2100      	movs	r1, #0
 8000d30:	aa01      	add	r2, sp, #4
 8000d32:	6960      	ldr	r0, [r4, #20]
 8000d34:	f006 feef 	bl	8007b16 <pinctrl_lookup_state>
	if (ret < 0) {
 8000d38:	1e03      	subs	r3, r0, #0
 8000d3a:	db07      	blt.n	8000d4c <stm32_abz_hall_init+0x28>
	return pinctrl_apply_state_direct(config, state);
 8000d3c:	9b01      	ldr	r3, [sp, #4]
	return pinctrl_configure_pins(state->pins, state->pin_cnt, reg);
 8000d3e:	2200      	movs	r2, #0
 8000d40:	7919      	ldrb	r1, [r3, #4]
 8000d42:	6818      	ldr	r0, [r3, #0]
 8000d44:	f002 fe14 	bl	8003970 <pinctrl_configure_pins>
	 if (ret < 0) {
 8000d48:	1e03      	subs	r3, r0, #0
 8000d4a:	da2d      	bge.n	8000da8 <stm32_abz_hall_init+0x84>
	z_impl_z_log_msg_simple_create_1(source, level, fmt, arg);
 8000d4c:	4a56      	ldr	r2, [pc, #344]	; (8000ea8 <stm32_abz_hall_init+0x184>)
 8000d4e:	2101      	movs	r1, #1
 8000d50:	4856      	ldr	r0, [pc, #344]	; (8000eac <stm32_abz_hall_init+0x188>)
 8000d52:	f006 fc30 	bl	80075b6 <z_impl_z_log_msg_simple_create_1>
     const struct abz_hall_stm32_config *cfg = dev->config;
 8000d56:	6874      	ldr	r4, [r6, #4]
     struct abz_hall_stm32_data *data = dev->data;
 8000d58:	f8d6 8010 	ldr.w	r8, [r6, #16]
     uint32_t pin_mask = BIT(cfg->hu_gpio.pin) | BIT(cfg->hv_gpio.pin) | BIT(cfg->hw_gpio.pin);
 8000d5c:	f894 901c 	ldrb.w	r9, [r4, #28]
     ret = gpio_pin_configure_dt(&cfg->hu_gpio, GPIO_INPUT);
 8000d60:	f104 0018 	add.w	r0, r4, #24
     uint32_t pin_mask = BIT(cfg->hu_gpio.pin) | BIT(cfg->hv_gpio.pin) | BIT(cfg->hw_gpio.pin);
 8000d64:	f894 5024 	ldrb.w	r5, [r4, #36]	; 0x24
 8000d68:	f894 a02c 	ldrb.w	sl, [r4, #44]	; 0x2c
     data->dev = dev;
 8000d6c:	f8c8 6018 	str.w	r6, [r8, #24]
     ret = gpio_pin_configure_dt(&cfg->hu_gpio, GPIO_INPUT);
 8000d70:	f005 ff7a 	bl	8006c68 <gpio_pin_configure_dt.constprop.0>
 8000d74:	4606      	mov	r6, r0
     ret |= gpio_pin_configure_dt(&cfg->hv_gpio, GPIO_INPUT);
 8000d76:	f104 0020 	add.w	r0, r4, #32
 8000d7a:	f005 ff75 	bl	8006c68 <gpio_pin_configure_dt.constprop.0>
 8000d7e:	4306      	orrs	r6, r0
     ret |= gpio_pin_configure_dt(&cfg->hw_gpio, GPIO_INPUT);
 8000d80:	f104 0028 	add.w	r0, r4, #40	; 0x28
 8000d84:	f005 ff70 	bl	8006c68 <gpio_pin_configure_dt.constprop.0>
     if (ret < 0) {
 8000d88:	4306      	orrs	r6, r0
 8000d8a:	d567      	bpl.n	8000e5c <stm32_abz_hall_init+0x138>
	z_impl_z_log_msg_simple_create_0(source, level, fmt);
 8000d8c:	4a48      	ldr	r2, [pc, #288]	; (8000eb0 <stm32_abz_hall_init+0x18c>)
 8000d8e:	2101      	movs	r1, #1
 8000d90:	4846      	ldr	r0, [pc, #280]	; (8000eac <stm32_abz_hall_init+0x188>)
 8000d92:	f006 fc07 	bl	80075a4 <z_impl_z_log_msg_simple_create_0>
 8000d96:	4a47      	ldr	r2, [pc, #284]	; (8000eb4 <stm32_abz_hall_init+0x190>)
 8000d98:	2103      	movs	r1, #3
 8000d9a:	4844      	ldr	r0, [pc, #272]	; (8000eac <stm32_abz_hall_init+0x188>)
 8000d9c:	f006 fc02 	bl	80075a4 <z_impl_z_log_msg_simple_create_0>
	abz_stm32_init(dev);
    hall_stm32_init(dev);
    LOG_INF("stm32_abz_hall_init Finish");
	return 0;
}
 8000da0:	2000      	movs	r0, #0
 8000da2:	b006      	add	sp, #24
 8000da4:	e8bd 87f0 	ldmia.w	sp!, {r4, r5, r6, r7, r8, r9, sl, pc}
	return api->on(dev, sys);
 8000da8:	4843      	ldr	r0, [pc, #268]	; (8000eb8 <stm32_abz_hall_init+0x194>)
 8000daa:	f104 010c 	add.w	r1, r4, #12
 8000dae:	6883      	ldr	r3, [r0, #8]
 8000db0:	681b      	ldr	r3, [r3, #0]
 8000db2:	4798      	blx	r3
	 if (ret < 0) {
 8000db4:	1e03      	subs	r3, r0, #0
 8000db6:	da01      	bge.n	8000dbc <stm32_abz_hall_init+0x98>
	z_impl_z_log_msg_simple_create_1(source, level, fmt, arg);
 8000db8:	4a40      	ldr	r2, [pc, #256]	; (8000ebc <stm32_abz_hall_init+0x198>)
 8000dba:	e7c8      	b.n	8000d4e <stm32_abz_hall_init+0x2a>
	 LL_TIM_InitTypeDef TIM_InitStruct = {0};
 8000dbc:	2214      	movs	r2, #20
 8000dbe:	2100      	movs	r1, #0
 8000dc0:	a801      	add	r0, sp, #4
 8000dc2:	f007 f97e 	bl	80080c2 <memset>
	 TIM_InitStruct.Autoreload = config->lines;
 8000dc6:	6823      	ldr	r3, [r4, #0]
	 LL_TIM_Init(config->timer, &TIM_InitStruct);
 8000dc8:	a901      	add	r1, sp, #4
	 TIM_InitStruct.Autoreload = config->lines;
 8000dca:	9303      	str	r3, [sp, #12]
	 LL_TIM_Init(config->timer, &TIM_InitStruct);
 8000dcc:	68a0      	ldr	r0, [r4, #8]
 8000dce:	f003 fa8b 	bl	80042e8 <LL_TIM_Init>
	 LL_TIM_DisableARRPreload(config->timer);
 8000dd2:	68a2      	ldr	r2, [r4, #8]
  CLEAR_BIT(TIMx->CR1, TIM_CR1_ARPE);
 8000dd4:	6813      	ldr	r3, [r2, #0]
 8000dd6:	f023 0380 	bic.w	r3, r3, #128	; 0x80
 8000dda:	6013      	str	r3, [r2, #0]
	 LL_TIM_SetEncoderMode(config->timer, LL_TIM_ENCODERMODE_X2_TI1);
 8000ddc:	68a2      	ldr	r2, [r4, #8]
  MODIFY_REG(TIMx->SMCR, TIM_SMCR_SMS, EncoderMode);
 8000dde:	6893      	ldr	r3, [r2, #8]
 8000de0:	f423 3380 	bic.w	r3, r3, #65536	; 0x10000
 8000de4:	f023 0307 	bic.w	r3, r3, #7
 8000de8:	f043 0301 	orr.w	r3, r3, #1
 8000dec:	6093      	str	r3, [r2, #8]
	 LL_TIM_IC_SetActiveInput(config->timer, LL_TIM_CHANNEL_CH1, LL_TIM_ACTIVEINPUT_DIRECTTI);
 8000dee:	68a2      	ldr	r2, [r4, #8]
  MODIFY_REG(*pReg, ((TIM_CCMR1_CC1S) << SHIFT_TAB_ICxx[iChannel]), (ICActiveInput >> 16U) << SHIFT_TAB_ICxx[iChannel]);
 8000df0:	6993      	ldr	r3, [r2, #24]
 8000df2:	f023 0303 	bic.w	r3, r3, #3
 8000df6:	f043 0301 	orr.w	r3, r3, #1
 8000dfa:	6193      	str	r3, [r2, #24]
	 LL_TIM_IC_SetPrescaler(config->timer, LL_TIM_CHANNEL_CH1, LL_TIM_ICPSC_DIV1);
 8000dfc:	68a2      	ldr	r2, [r4, #8]
  MODIFY_REG(*pReg, ((TIM_CCMR1_IC1PSC) << SHIFT_TAB_ICxx[iChannel]), (ICPrescaler >> 16U) << SHIFT_TAB_ICxx[iChannel]);
 8000dfe:	6993      	ldr	r3, [r2, #24]
 8000e00:	f023 030c 	bic.w	r3, r3, #12
 8000e04:	6193      	str	r3, [r2, #24]
	 LL_TIM_IC_SetFilter(config->timer, LL_TIM_CHANNEL_CH1, LL_TIM_IC_FILTER_FDIV1);
 8000e06:	68a2      	ldr	r2, [r4, #8]
  MODIFY_REG(*pReg, ((TIM_CCMR1_IC1F) << SHIFT_TAB_ICxx[iChannel]), (ICFilter >> 16U) << SHIFT_TAB_ICxx[iChannel]);
 8000e08:	6993      	ldr	r3, [r2, #24]
 8000e0a:	f023 03f0 	bic.w	r3, r3, #240	; 0xf0
 8000e0e:	6193      	str	r3, [r2, #24]
	 LL_TIM_IC_SetPolarity(config->timer, LL_TIM_CHANNEL_CH1, LL_TIM_IC_POLARITY_RISING);
 8000e10:	68a2      	ldr	r2, [r4, #8]
  MODIFY_REG(TIMx->CCER, ((TIM_CCER_CC1NP | TIM_CCER_CC1P) << SHIFT_TAB_CCxP[iChannel]),
 8000e12:	6a13      	ldr	r3, [r2, #32]
 8000e14:	f023 030a 	bic.w	r3, r3, #10
 8000e18:	6213      	str	r3, [r2, #32]
	 LL_TIM_IC_SetActiveInput(config->timer, LL_TIM_CHANNEL_CH2, LL_TIM_ACTIVEINPUT_DIRECTTI);
 8000e1a:	68a2      	ldr	r2, [r4, #8]
  MODIFY_REG(*pReg, ((TIM_CCMR1_CC1S) << SHIFT_TAB_ICxx[iChannel]), (ICActiveInput >> 16U) << SHIFT_TAB_ICxx[iChannel]);
 8000e1c:	6993      	ldr	r3, [r2, #24]
 8000e1e:	f423 7340 	bic.w	r3, r3, #768	; 0x300
 8000e22:	f443 7380 	orr.w	r3, r3, #256	; 0x100
 8000e26:	6193      	str	r3, [r2, #24]
	 LL_TIM_IC_SetPrescaler(config->timer, LL_TIM_CHANNEL_CH2, LL_TIM_ICPSC_DIV1);
 8000e28:	68a2      	ldr	r2, [r4, #8]
  MODIFY_REG(*pReg, ((TIM_CCMR1_IC1PSC) << SHIFT_TAB_ICxx[iChannel]), (ICPrescaler >> 16U) << SHIFT_TAB_ICxx[iChannel]);
 8000e2a:	6993      	ldr	r3, [r2, #24]
 8000e2c:	f423 6340 	bic.w	r3, r3, #3072	; 0xc00
 8000e30:	6193      	str	r3, [r2, #24]
	 LL_TIM_IC_SetFilter(config->timer, LL_TIM_CHANNEL_CH2, LL_TIM_IC_FILTER_FDIV1);
 8000e32:	68a2      	ldr	r2, [r4, #8]
  MODIFY_REG(*pReg, ((TIM_CCMR1_IC1F) << SHIFT_TAB_ICxx[iChannel]), (ICFilter >> 16U) << SHIFT_TAB_ICxx[iChannel]);
 8000e34:	6993      	ldr	r3, [r2, #24]
 8000e36:	f423 4370 	bic.w	r3, r3, #61440	; 0xf000
 8000e3a:	6193      	str	r3, [r2, #24]
	 LL_TIM_IC_SetPolarity(config->timer, LL_TIM_CHANNEL_CH2, LL_TIM_IC_POLARITY_RISING);
 8000e3c:	68a2      	ldr	r2, [r4, #8]
  MODIFY_REG(TIMx->CCER, ((TIM_CCER_CC1NP | TIM_CCER_CC1P) << SHIFT_TAB_CCxP[iChannel]),
 8000e3e:	6a13      	ldr	r3, [r2, #32]
 8000e40:	f023 03a0 	bic.w	r3, r3, #160	; 0xa0
 8000e44:	6213      	str	r3, [r2, #32]
	 LL_TIM_SetTriggerOutput(config->timer, LL_TIM_TRGO_RESET);
 8000e46:	68a2      	ldr	r2, [r4, #8]
  MODIFY_REG(TIMx->CR2, TIM_CR2_MMS, TimerSynchronization);
 8000e48:	6853      	ldr	r3, [r2, #4]
 8000e4a:	f023 0370 	bic.w	r3, r3, #112	; 0x70
 8000e4e:	6053      	str	r3, [r2, #4]
	 LL_TIM_DisableMasterSlaveMode(config->timer);
 8000e50:	68a2      	ldr	r2, [r4, #8]
  CLEAR_BIT(TIMx->SMCR, TIM_SMCR_MSM);
 8000e52:	6893      	ldr	r3, [r2, #8]
 8000e54:	f023 0380 	bic.w	r3, r3, #128	; 0x80
 8000e58:	6093      	str	r3, [r2, #8]
	 return 0;
 8000e5a:	e77c      	b.n	8000d56 <stm32_abz_hall_init+0x32>
     uint32_t pin_mask = BIT(cfg->hu_gpio.pin) | BIT(cfg->hv_gpio.pin) | BIT(cfg->hw_gpio.pin);
 8000e5c:	2601      	movs	r6, #1
	SYS_PORT_TRACING_FUNC_ENTER(gpio, init_callback, callback, handler, pin_mask);

	__ASSERT(callback, "Callback pointer should not be NULL");
	__ASSERT(handler, "Callback handler pointer should not be NULL");

	callback->handler = handler;
 8000e5e:	4b18      	ldr	r3, [pc, #96]	; (8000ec0 <stm32_abz_hall_init+0x19c>)
     gpio_init_callback(&data->gpio_cb, hall_gpio_callback, pin_mask);
 8000e60:	f108 070c 	add.w	r7, r8, #12
     uint32_t pin_mask = BIT(cfg->hu_gpio.pin) | BIT(cfg->hv_gpio.pin) | BIT(cfg->hw_gpio.pin);
 8000e64:	fa06 f505 	lsl.w	r5, r6, r5
 8000e68:	fa06 fa0a 	lsl.w	sl, r6, sl
 8000e6c:	fa06 f909 	lsl.w	r9, r6, r9
 8000e70:	f8c8 3010 	str.w	r3, [r8, #16]
 8000e74:	ea45 050a 	orr.w	r5, r5, sl
     ret = gpio_add_callback(cfg->hu_gpio.port, &data->gpio_cb);
 8000e78:	4639      	mov	r1, r7
     uint32_t pin_mask = BIT(cfg->hu_gpio.pin) | BIT(cfg->hv_gpio.pin) | BIT(cfg->hw_gpio.pin);
 8000e7a:	ea45 0509 	orr.w	r5, r5, r9
	callback->pin_mask = pin_mask;
 8000e7e:	f8c8 5014 	str.w	r5, [r8, #20]
     ret = gpio_add_callback(cfg->hu_gpio.port, &data->gpio_cb);
 8000e82:	69a0      	ldr	r0, [r4, #24]
 8000e84:	f005 fed3 	bl	8006c2e <gpio_add_callback>
 8000e88:	4605      	mov	r5, r0
     ret |= gpio_add_callback(cfg->hv_gpio.port, &data->gpio_cb);
 8000e8a:	4639      	mov	r1, r7
 8000e8c:	6a20      	ldr	r0, [r4, #32]
 8000e8e:	f005 fece 	bl	8006c2e <gpio_add_callback>
 8000e92:	4305      	orrs	r5, r0
     ret |= gpio_add_callback(cfg->hw_gpio.port, &data->gpio_cb);
 8000e94:	4639      	mov	r1, r7
 8000e96:	6aa0      	ldr	r0, [r4, #40]	; 0x28
 8000e98:	f005 fec9 	bl	8006c2e <gpio_add_callback>
     if (ret < 0) {
 8000e9c:	4305      	orrs	r5, r0
 8000e9e:	f57f af7a 	bpl.w	8000d96 <stm32_abz_hall_init+0x72>
	z_impl_z_log_msg_simple_create_0(source, level, fmt);
 8000ea2:	4a08      	ldr	r2, [pc, #32]	; (8000ec4 <stm32_abz_hall_init+0x1a0>)
 8000ea4:	4631      	mov	r1, r6
 8000ea6:	e773      	b.n	8000d90 <stm32_abz_hall_init+0x6c>
 8000ea8:	08009d70 	.word	0x08009d70
 8000eac:	08008cac 	.word	0x08008cac
 8000eb0:	08009e26 	.word	0x08009e26
 8000eb4:	08009e5b 	.word	0x08009e5b
 8000eb8:	0800855c 	.word	0x0800855c
 8000ebc:	08009d8a 	.word	0x08009d8a
 8000ec0:	08000ca1 	.word	0x08000ca1
 8000ec4:	08009e44 	.word	0x08009e44

08000ec8 <motor_thread_entry.part.0>:
const struct device *motor1 = DEVICE_DT_GET(MOTOR1_NODE);

#define LED0_NODE DT_ALIAS(led0)
const struct gpio_dt_spec led = GPIO_DT_SPEC_GET(LED0_NODE, gpios);

void motor_thread_entry(void *p1, void *p2, void *p3)
 8000ec8:	b51f      	push	{r0, r1, r2, r3, r4, lr}
    if (!device_is_ready(led.port)) {
        printk("Error: LED device not ready\n");
        return;
    }

    int ret = gpio_pin_configure_dt(&led, GPIO_OUTPUT_ACTIVE);
 8000eca:	4825      	ldr	r0, [pc, #148]	; (8000f60 <motor_thread_entry.part.0+0x98>)
 8000ecc:	f005 fee2 	bl	8006c94 <gpio_pin_configure_dt.constprop.0>
    if (ret < 0) {
 8000ed0:	1e01      	subs	r1, r0, #0
 8000ed2:	da02      	bge.n	8000eda <motor_thread_entry.part.0+0x12>
        printk("Error %d: failed to configure LED\n", ret);
 8000ed4:	4823      	ldr	r0, [pc, #140]	; (8000f64 <motor_thread_entry.part.0+0x9c>)
 8000ed6:	f006 f845 	bl	8006f64 <printk>
    }

    const struct gpio_dt_spec mot12_brk = GPIO_DT_SPEC_GET(MOT12_BRK_PIN_NODE, gpios);
 8000eda:	4b23      	ldr	r3, [pc, #140]	; (8000f68 <motor_thread_entry.part.0+0xa0>)
    ret = gpio_pin_configure_dt(&mot12_brk, GPIO_OUTPUT_ACTIVE);
 8000edc:	4668      	mov	r0, sp
    const struct gpio_dt_spec mot12_brk = GPIO_DT_SPEC_GET(MOT12_BRK_PIN_NODE, gpios);
 8000ede:	9300      	str	r3, [sp, #0]
 8000ee0:	2303      	movs	r3, #3
 8000ee2:	f88d 3004 	strb.w	r3, [sp, #4]
 8000ee6:	2300      	movs	r3, #0
 8000ee8:	f8ad 3006 	strh.w	r3, [sp, #6]
    ret = gpio_pin_configure_dt(&mot12_brk, GPIO_OUTPUT_ACTIVE);
 8000eec:	f005 fed2 	bl	8006c94 <gpio_pin_configure_dt.constprop.0>
    if (ret < 0) {
 8000ef0:	1e01      	subs	r1, r0, #0
 8000ef2:	da02      	bge.n	8000efa <motor_thread_entry.part.0+0x32>
        printk("Error %d: Failed to configure brake pin\n", ret);
 8000ef4:	481d      	ldr	r0, [pc, #116]	; (8000f6c <motor_thread_entry.part.0+0xa4>)
 8000ef6:	f006 f835 	bl	8006f64 <printk>
    }
    // gpio_pin_set(mot12_brk.port, mot12_brk.pin,1);
	const struct gpio_dt_spec encoder_vcc = GPIO_DT_SPEC_GET(ENCODER_VCC, gpios);
 8000efa:	4b1d      	ldr	r3, [pc, #116]	; (8000f70 <motor_thread_entry.part.0+0xa8>)
    ret = gpio_pin_configure_dt(&encoder_vcc, GPIO_OUTPUT_ACTIVE);
 8000efc:	a802      	add	r0, sp, #8
	const struct gpio_dt_spec encoder_vcc = GPIO_DT_SPEC_GET(ENCODER_VCC, gpios);
 8000efe:	9302      	str	r3, [sp, #8]
 8000f00:	2303      	movs	r3, #3
 8000f02:	f88d 300c 	strb.w	r3, [sp, #12]
 8000f06:	2300      	movs	r3, #0
 8000f08:	f8ad 300e 	strh.w	r3, [sp, #14]
    ret = gpio_pin_configure_dt(&encoder_vcc, GPIO_OUTPUT_ACTIVE);
 8000f0c:	f005 fec2 	bl	8006c94 <gpio_pin_configure_dt.constprop.0>
    if (ret < 0) {
 8000f10:	1e01      	subs	r1, r0, #0
 8000f12:	da02      	bge.n	8000f1a <motor_thread_entry.part.0+0x52>
        printk("Error %d: Failed to configure brake pin\n", ret);
 8000f14:	4815      	ldr	r0, [pc, #84]	; (8000f6c <motor_thread_entry.part.0+0xa4>)
 8000f16:	f006 f825 	bl	8006f64 <printk>
    }
	LOG_INF("main statr"); 
    if (!device_is_ready(motor0)) {
 8000f1a:	4c16      	ldr	r4, [pc, #88]	; (8000f74 <motor_thread_entry.part.0+0xac>)
 8000f1c:	2103      	movs	r1, #3
 8000f1e:	4a16      	ldr	r2, [pc, #88]	; (8000f78 <motor_thread_entry.part.0+0xb0>)
 8000f20:	4816      	ldr	r0, [pc, #88]	; (8000f7c <motor_thread_entry.part.0+0xb4>)
 8000f22:	f006 fb3f 	bl	80075a4 <z_impl_z_log_msg_simple_create_0>
 8000f26:	6820      	ldr	r0, [r4, #0]
		union { uintptr_t x; const struct device * val; } parm0 = { .val = dev };
		return (bool) arch_syscall_invoke1(parm0.x, K_SYSCALL_DEVICE_IS_READY);
	}
#endif
	compiler_barrier();
	return z_impl_device_is_ready(dev);
 8000f28:	f006 ff59 	bl	8007dde <z_impl_device_is_ready>
 8000f2c:	b938      	cbnz	r0, 8000f3e <motor_thread_entry.part.0+0x76>
 8000f2e:	4a14      	ldr	r2, [pc, #80]	; (8000f80 <motor_thread_entry.part.0+0xb8>)
 8000f30:	2101      	movs	r1, #1
 8000f32:	4812      	ldr	r0, [pc, #72]	; (8000f7c <motor_thread_entry.part.0+0xb4>)
    while (1) {
        // gpio_pin_set_dt(&led, 1);
        k_msleep(1);
        // gpio_pin_toggle_dt(&led);
    }
}
 8000f34:	b004      	add	sp, #16
 8000f36:	e8bd 4010 	ldmia.w	sp!, {r4, lr}
 8000f3a:	f006 bb33 	b.w	80075a4 <z_impl_z_log_msg_simple_create_0>
	foc_start(motor0);
 8000f3e:	6820      	ldr	r0, [r4, #0]
    if (!device_is_ready(motor1)) {
 8000f40:	4c10      	ldr	r4, [pc, #64]	; (8000f84 <motor_thread_entry.part.0+0xbc>)
	foc_start(motor0);
 8000f42:	f005 fec8 	bl	8006cd6 <foc_start>
    if (!device_is_ready(motor1)) {
 8000f46:	6820      	ldr	r0, [r4, #0]
 8000f48:	f006 ff49 	bl	8007dde <z_impl_device_is_ready>
 8000f4c:	2800      	cmp	r0, #0
 8000f4e:	d0ee      	beq.n	8000f2e <motor_thread_entry.part.0+0x66>
	foc_start(motor1);	
 8000f50:	6820      	ldr	r0, [r4, #0]
 8000f52:	f005 fec0 	bl	8006cd6 <foc_start>
		union { struct { uintptr_t lo, hi; } split; k_timeout_t val; } parm0 = { .val = timeout };
		return (int32_t) arch_syscall_invoke2(parm0.split.lo, parm0.split.hi, K_SYSCALL_K_SLEEP);
	}
#endif
	compiler_barrier();
	return z_impl_k_sleep(timeout);
 8000f56:	2100      	movs	r1, #0
 8000f58:	200a      	movs	r0, #10
 8000f5a:	f007 f823 	bl	8007fa4 <z_impl_k_sleep>
 8000f5e:	e7fa      	b.n	8000f56 <motor_thread_entry.part.0+0x8e>
 8000f60:	080091cc 	.word	0x080091cc
 8000f64:	08009ea1 	.word	0x08009ea1
 8000f68:	0800864c 	.word	0x0800864c
 8000f6c:	08009ec4 	.word	0x08009ec4
 8000f70:	08008624 	.word	0x08008624
 8000f74:	24000504 	.word	0x24000504
 8000f78:	08009eed 	.word	0x08009eed
 8000f7c:	08008ce4 	.word	0x08008ce4
 8000f80:	08009ef8 	.word	0x08009ef8
 8000f84:	24000500 	.word	0x24000500

08000f88 <motor_thread_entry>:
{
 8000f88:	b508      	push	{r3, lr}
 8000f8a:	4806      	ldr	r0, [pc, #24]	; (8000fa4 <motor_thread_entry+0x1c>)
 8000f8c:	f006 ff27 	bl	8007dde <z_impl_device_is_ready>
    if (!device_is_ready(led.port)) {
 8000f90:	b920      	cbnz	r0, 8000f9c <motor_thread_entry+0x14>
        printk("Error: LED device not ready\n");
 8000f92:	4805      	ldr	r0, [pc, #20]	; (8000fa8 <motor_thread_entry+0x20>)
}
 8000f94:	e8bd 4008 	ldmia.w	sp!, {r3, lr}
        printk("Error: LED device not ready\n");
 8000f98:	f005 bfe4 	b.w	8006f64 <printk>
}
 8000f9c:	e8bd 4008 	ldmia.w	sp!, {r3, lr}
 8000fa0:	f7ff bf92 	b.w	8000ec8 <motor_thread_entry.part.0>
 8000fa4:	08008610 	.word	0x08008610
 8000fa8:	08009f14 	.word	0x08009f14

08000fac <foc_init>:

    return;

}
static int foc_init(const struct device* dev)
{
 8000fac:	b598      	push	{r3, r4, r7, lr}
    const struct foc_config *cfg = dev->config;
    const struct device *currsmp = cfg->currsmp;
 8000fae:	6843      	ldr	r3, [r0, #4]
{
 8000fb0:	4604      	mov	r4, r0
 8000fb2:	af00      	add	r7, sp, #0
                      currsmp_regulation_cb_t regulation_cb,
                      void *ctx)
 {
     const struct currsmp_driver_api *api = dev->api;
 
     api->configure(dev, regulation_cb, ctx);
 8000fb4:	490d      	ldr	r1, [pc, #52]	; (8000fec <foc_init+0x40>)
    const struct device *currsmp = cfg->currsmp;
 8000fb6:	6858      	ldr	r0, [r3, #4]
 8000fb8:	4622      	mov	r2, r4
 8000fba:	6883      	ldr	r3, [r0, #8]
 8000fbc:	681b      	ldr	r3, [r3, #0]
 8000fbe:	4798      	blx	r3
    currsmp_configure(currsmp,foc_curr_regulator,(void *)dev);
    LOG_INF("foc_init  name :%s",dev->name);
 8000fc0:	b088      	sub	sp, #32
 8000fc2:	6823      	ldr	r3, [r4, #0]
 8000fc4:	466a      	mov	r2, sp
 8000fc6:	490a      	ldr	r1, [pc, #40]	; (8000ff0 <foc_init+0x44>)
 8000fc8:	e9c2 1305 	strd	r1, r3, [r2, #20]
 8000fcc:	f44f 7300 	mov.w	r3, #512	; 0x200
 8000fd0:	8393      	strh	r3, [r2, #28]
 8000fd2:	4b08      	ldr	r3, [pc, #32]	; (8000ff4 <foc_init+0x48>)
 8000fd4:	f842 3f10 	str.w	r3, [r2, #16]!
	z_impl_z_log_msg_static_create(source, desc, package, data);
 8000fd8:	2300      	movs	r3, #0
 8000fda:	f44f 51e6 	mov.w	r1, #7360	; 0x1cc0
 8000fde:	4806      	ldr	r0, [pc, #24]	; (8000ff8 <foc_init+0x4c>)
 8000fe0:	f000 ffdc 	bl	8001f9c <z_impl_z_log_msg_static_create>
    return 0;
}
 8000fe4:	2000      	movs	r0, #0
 8000fe6:	46bd      	mov	sp, r7
 8000fe8:	bd98      	pop	{r3, r4, r7, pc}
 8000fea:	bf00      	nop
 8000fec:	08001029 	.word	0x08001029
 8000ff0:	08009f3e 	.word	0x08009f3e
 8000ff4:	01000003 	.word	0x01000003
 8000ff8:	08008cc4 	.word	0x08008cc4

08000ffc <gpio_pin_set_dt.constprop.0.isra.0>:
	return gpio_pin_set(spec->port, spec->pin, value);
 8000ffc:	4a09      	ldr	r2, [pc, #36]	; (8001024 <gpio_pin_set_dt.constprop.0.isra.0+0x28>)
static inline int gpio_pin_set_dt(const struct gpio_dt_spec *spec, int value)
 8000ffe:	4603      	mov	r3, r0
	if (data->invert & (gpio_port_pins_t)BIT(pin)) {
 8001000:	2101      	movs	r1, #1
	return gpio_pin_set(spec->port, spec->pin, value);
 8001002:	6810      	ldr	r0, [r2, #0]
	if (data->invert & (gpio_port_pins_t)BIT(pin)) {
 8001004:	7912      	ldrb	r2, [r2, #4]
 8001006:	4091      	lsls	r1, r2
 8001008:	6902      	ldr	r2, [r0, #16]
 800100a:	6812      	ldr	r2, [r2, #0]
 800100c:	4211      	tst	r1, r2
		value = (value != 0) ? 0 : 1;
 800100e:	bf18      	it	ne
 8001010:	f083 0301 	eorne.w	r3, r3, #1
	if (value != 0)	{
 8001014:	b113      	cbz	r3, 800101c <gpio_pin_set_dt.constprop.0.isra.0+0x20>
	ret = api->port_set_bits_raw(port, pins);
 8001016:	6883      	ldr	r3, [r0, #8]
 8001018:	68db      	ldr	r3, [r3, #12]
	ret = api->port_clear_bits_raw(port, pins);
 800101a:	4718      	bx	r3
 800101c:	6883      	ldr	r3, [r0, #8]
 800101e:	691b      	ldr	r3, [r3, #16]
 8001020:	e7fb      	b.n	800101a <gpio_pin_set_dt.constprop.0.isra.0+0x1e>
 8001022:	bf00      	nop
 8001024:	080091cc 	.word	0x080091cc

08001028 <foc_curr_regulator>:
{    
 8001028:	b570      	push	{r4, r5, r6, lr}
    struct foc_config *cfg = (struct foc_config *)dev->config;
 800102a:	6845      	ldr	r5, [r0, #4]
{    
 800102c:	b086      	sub	sp, #24
    struct foc_data *data = dev->data;
 800102e:	6904      	ldr	r4, [r0, #16]
    gpio_pin_set_dt(&led, 1);
 8001030:	2001      	movs	r0, #1
    struct device *currsmp = (struct device *)cfg->currsmp;
 8001032:	686e      	ldr	r6, [r5, #4]
    gpio_pin_set_dt(&led, 1);
 8001034:	f7ff ffe2 	bl	8000ffc <gpio_pin_set_dt.constprop.0.isra.0>
  */
 static inline void currsmp_get_currents(const struct device *dev,
                     struct currsmp_curr *curr)
 {
     const struct currsmp_driver_api *api = dev->api;
     api->get_currents(dev, curr);
 8001038:	a903      	add	r1, sp, #12
 800103a:	68b3      	ldr	r3, [r6, #8]
 800103c:	4630      	mov	r0, r6
 800103e:	685b      	ldr	r3, [r3, #4]
 8001040:	4798      	blx	r3
    sin_cos_f32(data->self_theta,&sin_the,&cos_the);
 8001042:	a902      	add	r1, sp, #8
 8001044:	a801      	add	r0, sp, #4
 8001046:	ed94 0a01 	vldr	s0, [r4, #4]
 800104a:	f003 f84f 	bl	80040ec <arm_sin_cos_f32>
    data->self_theta += 0.02f;
 800104e:	edd4 7a01 	vldr	s15, [r4, #4]
 8001052:	ed9f 0a13 	vldr	s0, [pc, #76]	; 80010a0 <foc_curr_regulator+0x78>
    inv_park_f32(0.0f,0.02f,&alph,&beta,sin_the,cos_the);
 8001056:	eddd 6a01 	vldr	s13, [sp, #4]
 800105a:	ed9d 7a02 	vldr	s14, [sp, #8]
    data->self_theta += 0.02f;
 800105e:	ee77 7a80 	vadd.f32	s15, s15, s0
        cfg->modulate(data->svm_handle, alph, beta);
 8001062:	6820      	ldr	r0, [r4, #0]
  {
    /* Calculate pIalpha using the equation, pIalpha = Id * cosVal - Iq * sinVal */
    *pIalpha = Id * cosVal - Iq * sinVal;

    /* Calculate pIbeta using the equation, pIbeta = Id * sinVal + Iq * cosVal */
    *pIbeta = Id * sinVal + Iq * cosVal;
 8001064:	ee67 0a00 	vmul.f32	s1, s14, s0
    *pIalpha = Id * cosVal - Iq * sinVal;
 8001068:	ee26 0a80 	vmul.f32	s0, s13, s0
    data->self_theta += 0.02f;
 800106c:	edc4 7a01 	vstr	s15, [r4, #4]
    *pIbeta = Id * sinVal + Iq * cosVal;
 8001070:	eddf 7a0c 	vldr	s15, [pc, #48]	; 80010a4 <foc_curr_regulator+0x7c>
        cfg->modulate(data->svm_handle, alph, beta);
 8001074:	68eb      	ldr	r3, [r5, #12]
 8001076:	ee46 0aa7 	vmla.f32	s1, s13, s15
 800107a:	ee17 0a27 	vnmls.f32	s0, s14, s15
 800107e:	4798      	blx	r3
    pwm_set_phase_voltages(cfg->pwm,0.5f,0.5f,0.5f);
 8001080:	6828      	ldr	r0, [r5, #0]
 
     /* normalization */
    //  a = (ua + 1.0f) * 0.5f;
    //  b = (ub + 1.0f) * 0.5f;
    //  c = (uc + 1.0f) * 0.5f;
     api->set_phase_voltages(dev, ua, ub, uc);
 8001082:	eeb6 1a00 	vmov.f32	s2, #96	; 0x3f000000  0.5
 8001086:	6883      	ldr	r3, [r0, #8]
 8001088:	eef0 0a41 	vmov.f32	s1, s2
 800108c:	689b      	ldr	r3, [r3, #8]
 800108e:	eeb0 0a41 	vmov.f32	s0, s2
 8001092:	4798      	blx	r3
    gpio_pin_set_dt(&led, 0);
 8001094:	2000      	movs	r0, #0
 8001096:	f7ff ffb1 	bl	8000ffc <gpio_pin_set_dt.constprop.0.isra.0>
}
 800109a:	b006      	add	sp, #24
 800109c:	bd70      	pop	{r4, r5, r6, pc}
 800109e:	bf00      	nop
 80010a0:	3ca3d70a 	.word	0x3ca3d70a
 80010a4:	00000000 	.word	0x00000000

080010a8 <svm_set>:
{
     //判断扇区
    unsigned char sector;
    sector = 0;
    /*-------------------------------*/
    if(vb*(1<<15) > 0) {
 80010a8:	ed9f 6a5f 	vldr	s12, [pc, #380]	; 8001228 <svm_set+0x180>
        sector = 1;
    }
    if(((SQRT_3 * va - vb)/2.0F*(1<<15)) > 0) {
 80010ac:	eeb6 5a00 	vmov.f32	s10, #96	; 0x3f000000  0.5
 80010b0:	ed9f 7a5e 	vldr	s14, [pc, #376]	; 800122c <svm_set+0x184>
    if(vb*(1<<15) > 0) {
 80010b4:	ee60 7a86 	vmul.f32	s15, s1, s12
 80010b8:	eef5 7ac0 	vcmpe.f32	s15, #0.0
    if(((SQRT_3 * va - vb)/2.0F*(1<<15)) > 0) {
 80010bc:	ee60 7a07 	vmul.f32	s15, s0, s14
    if(vb*(1<<15) > 0) {
 80010c0:	eef1 fa10 	vmrs	APSR_nzcv, fpscr
    if(((SQRT_3 * va - vb)/2.0F*(1<<15)) > 0) {
 80010c4:	ee77 6ae0 	vsub.f32	s13, s15, s1
        sector += 2;
    }
    if(((-SQRT_3 * va - vb) / 2.0F)*(1<<15) > 0) {
 80010c8:	eef1 7a67 	vneg.f32	s15, s15
    if(vb*(1<<15) > 0) {
 80010cc:	bfcc      	ite	gt
 80010ce:	2301      	movgt	r3, #1
 80010d0:	2300      	movle	r3, #0
    if(((SQRT_3 * va - vb)/2.0F*(1<<15)) > 0) {
 80010d2:	ee66 6a85 	vmul.f32	s13, s13, s10
    if(((-SQRT_3 * va - vb) / 2.0F)*(1<<15) > 0) {
 80010d6:	ee77 7ae0 	vsub.f32	s15, s15, s1
    if(((SQRT_3 * va - vb)/2.0F*(1<<15)) > 0) {
 80010da:	ee66 6a86 	vmul.f32	s13, s13, s12
    if(((-SQRT_3 * va - vb) / 2.0F)*(1<<15) > 0) {
 80010de:	ee67 7a85 	vmul.f32	s15, s15, s10
    if(((SQRT_3 * va - vb)/2.0F*(1<<15)) > 0) {
 80010e2:	eef5 6ac0 	vcmpe.f32	s13, #0.0
    if(((-SQRT_3 * va - vb) / 2.0F)*(1<<15) > 0) {
 80010e6:	ee67 7a86 	vmul.f32	s15, s15, s12
    if(((SQRT_3 * va - vb)/2.0F*(1<<15)) > 0) {
 80010ea:	eef1 fa10 	vmrs	APSR_nzcv, fpscr
    if(((-SQRT_3 * va - vb) / 2.0F)*(1<<15) > 0) {
 80010ee:	eef5 7ac0 	vcmpe.f32	s15, #0.0
        sector += 4;
    }
    //计算对应扇区的换相时间
    float X,Y,Z;
    X = (SQRT_3 * vb * T_UDC);
 80010f2:	ee60 7a87 	vmul.f32	s15, s1, s14
        sector += 2;
 80010f6:	bfc8      	it	gt
 80010f8:	3302      	addgt	r3, #2
    Y = (1.5F * va + SQRT_3/2.0f * vb) * T_UDC;
 80010fa:	eeb7 7a08 	vmov.f32	s14, #120	; 0x3fc00000  1.5
    if(((-SQRT_3 * va - vb) / 2.0F)*(1<<15) > 0) {
 80010fe:	eef1 fa10 	vmrs	APSR_nzcv, fpscr
    Y = (1.5F * va + SQRT_3/2.0f * vb) * T_UDC;
 8001102:	ee20 0a07 	vmul.f32	s0, s0, s14
 8001106:	ed9f 7a4a 	vldr	s14, [pc, #296]	; 8001230 <svm_set+0x188>
        sector += 4;
 800110a:	bfc8      	it	gt
 800110c:	3304      	addgt	r3, #4
    Y = (1.5F * va + SQRT_3/2.0f * vb) * T_UDC;
 800110e:	ee60 0a87 	vmul.f32	s1, s1, s14
        sector += 4;
 8001112:	bfc8      	it	gt
 8001114:	b2db      	uxtbgt	r3, r3
    Z = (-1.5F * va + SQRT_3/2.0f * vb) * T_UDC;

    float s_vector = 0.0f,m_vector = 0.0f;
    switch (sector) {
 8001116:	3b01      	subs	r3, #1
    Y = (1.5F * va + SQRT_3/2.0f * vb) * T_UDC;
 8001118:	ee30 6a20 	vadd.f32	s12, s0, s1
    Z = (-1.5F * va + SQRT_3/2.0f * vb) * T_UDC;
 800111c:	ee70 0ac0 	vsub.f32	s1, s1, s0
    switch (sector) {
 8001120:	2b04      	cmp	r3, #4
 8001122:	d83b      	bhi.n	800119c <svm_set+0xf4>
 8001124:	e8df f003 	tbb	[pc, r3]
 8001128:	302b0307 	.word	0x302b0307
 800112c:	35          	.byte	0x35
 800112d:	00          	.byte	0x00
            m_vector = Z;
            s_vector = Y;
        break;

        case 2:
            m_vector = Y;
 800112e:	eef0 0a46 	vmov.f32	s1, s12
            s_vector = -X;
 8001132:	eeb1 6a67 	vneg.f32	s12, s15
            m_vector = -Y;
            s_vector = -Z;
        break;
    }
    /*--------------------限制矢量圆----------------------*/
    if (m_vector + s_vector > PWM_TS) 
 8001136:	ee76 7a20 	vadd.f32	s15, s12, s1
 800113a:	eef7 5a00 	vmov.f32	s11, #112	; 0x3f800000  1.0
        m_vector = (m_vector/(sum)*PWM_TS);
        s_vector = (s_vector/(sum)*PWM_TS);
    }
    /*---------------------------------------------------*/
    float Ta,Tb,Tc;
    Ta = (PWM_TS - (m_vector + s_vector)) / 4.0F;  
 800113e:	eeb5 7a00 	vmov.f32	s14, #80	; 0x3e800000  0.250
    if (m_vector + s_vector > PWM_TS) 
 8001142:	eef4 7ae5 	vcmpe.f32	s15, s11
 8001146:	eef1 fa10 	vmrs	APSR_nzcv, fpscr
        m_vector = (m_vector/(sum)*PWM_TS);
 800114a:	bfc4      	itt	gt
 800114c:	eec0 0aa7 	vdivgt.f32	s1, s1, s15
        s_vector = (s_vector/(sum)*PWM_TS);
 8001150:	ee86 6a27 	vdivgt.f32	s12, s12, s15
    Ta = (PWM_TS - (m_vector + s_vector)) / 4.0F;  
 8001154:	ee76 7a20 	vadd.f32	s15, s12, s1
 8001158:	ee75 7ae7 	vsub.f32	s15, s11, s15
 800115c:	ee67 7a87 	vmul.f32	s15, s15, s14
    Tb = Ta + m_vector/2.0f;
 8001160:	eeb0 7a67 	vmov.f32	s14, s15
 8001164:	ee00 7a85 	vmla.f32	s14, s1, s10
    Tc = Tb + s_vector/2.0f;
 8001168:	eef0 6a47 	vmov.f32	s13, s14
 800116c:	ee46 6a05 	vmla.f32	s13, s12, s10
    /*------------------------换相点---------------------*/
    float Tcmp1 = 0.0f;
    float Tcmp2 = 0.0f;
    float Tcmp3 = 0.0f;
    switch (sector) {
 8001170:	2b05      	cmp	r3, #5
 8001172:	d818      	bhi.n	80011a6 <svm_set+0xfe>
 8001174:	e8df f003 	tbb	[pc, r3]
 8001178:	4740391d 	.word	0x4740391d
 800117c:	554e      	.short	0x554e
            m_vector = -Z;
 800117e:	eef1 0a60 	vneg.f32	s1, s1
            s_vector = X;
 8001182:	eeb0 6a67 	vmov.f32	s12, s15
        break;
 8001186:	e7d6      	b.n	8001136 <svm_set+0x8e>
            s_vector = Z;
 8001188:	eeb0 6a60 	vmov.f32	s12, s1
            m_vector = -X;
 800118c:	eef1 0a67 	vneg.f32	s1, s15
        break;
 8001190:	e7d1      	b.n	8001136 <svm_set+0x8e>
            s_vector = -Y;
 8001192:	eeb1 6a46 	vneg.f32	s12, s12
            m_vector = -Y;
 8001196:	eef0 0a67 	vmov.f32	s1, s15
        break;
 800119a:	e7cc      	b.n	8001136 <svm_set+0x8e>
            m_vector = -Y;
 800119c:	eef1 7a46 	vneg.f32	s15, s12
            s_vector = -Z;
 80011a0:	eeb1 6a60 	vneg.f32	s12, s1
 80011a4:	e7f7      	b.n	8001196 <svm_set+0xee>
    float Tcmp3 = 0.0f;
 80011a6:	eddf 6a23 	vldr	s13, [pc, #140]	; 8001234 <svm_set+0x18c>
    float Tcmp2 = 0.0f;
 80011aa:	eef0 7a66 	vmov.f32	s15, s13
    float Tcmp1 = 0.0f;
 80011ae:	eeb0 7a66 	vmov.f32	s14, s13

    /*-------------------------占空比---------------------------*/
    // svm->duties.a =(PWM_TS - Tcmp1*2.0f )/PWM_TS;
    // svm->duties.b =(PWM_TS - Tcmp2*2.0f )/PWM_TS;
    // svm->duties.c =(PWM_TS - Tcmp3*2.0f )/PWM_TS;
    if (svm) {
 80011b2:	b1c8      	cbz	r0, 80011e8 <svm_set+0x140>
        svm->a = (PWM_TS - Tcmp1*2.0f )/PWM_TS*10000;
 80011b4:	ee37 7a07 	vadd.f32	s14, s14, s14
 80011b8:	ed9f 6a1f 	vldr	s12, [pc, #124]	; 8001238 <svm_set+0x190>
        svm->b = (PWM_TS - Tcmp2*2.0f )/PWM_TS*10000;
 80011bc:	ee77 7aa7 	vadd.f32	s15, s15, s15
        svm->c = (PWM_TS - Tcmp3*2.0f )/PWM_TS*10000;
 80011c0:	ee76 6aa6 	vadd.f32	s13, s13, s13
        svm->a = (PWM_TS - Tcmp1*2.0f )/PWM_TS*10000;
 80011c4:	ee35 7ac7 	vsub.f32	s14, s11, s14
        svm->b = (PWM_TS - Tcmp2*2.0f )/PWM_TS*10000;
 80011c8:	ee75 7ae7 	vsub.f32	s15, s11, s15
        svm->c = (PWM_TS - Tcmp3*2.0f )/PWM_TS*10000;
 80011cc:	ee75 5ae6 	vsub.f32	s11, s11, s13
        svm->a = (PWM_TS - Tcmp1*2.0f )/PWM_TS*10000;
 80011d0:	ee27 7a06 	vmul.f32	s14, s14, s12
        svm->b = (PWM_TS - Tcmp2*2.0f )/PWM_TS*10000;
 80011d4:	ee67 7a86 	vmul.f32	s15, s15, s12
        svm->c = (PWM_TS - Tcmp3*2.0f )/PWM_TS*10000;
 80011d8:	ee65 5a86 	vmul.f32	s11, s11, s12
        svm->a = (PWM_TS - Tcmp1*2.0f )/PWM_TS*10000;
 80011dc:	ed80 7a03 	vstr	s14, [r0, #12]
        svm->b = (PWM_TS - Tcmp2*2.0f )/PWM_TS*10000;
 80011e0:	edc0 7a04 	vstr	s15, [r0, #16]
        svm->c = (PWM_TS - Tcmp3*2.0f )/PWM_TS*10000;
 80011e4:	edc0 5a05 	vstr	s11, [r0, #20]
    }

    // svm->duties.a = CLAMP(svm->duties.a, svm->d_min, svm->d_max);
	// svm->duties.b = CLAMP(svm->duties.b, svm->d_min, svm->d_max);
	// svm->duties.c = CLAMP(svm->duties.c, svm->d_min, svm->d_max);
}
 80011e8:	4770      	bx	lr
        case 2:Tcmp1 = Ta;Tcmp2 = Tc;Tcmp3 = Tb;break;
 80011ea:	eeb0 6a47 	vmov.f32	s12, s14
 80011ee:	eeb0 7a67 	vmov.f32	s14, s15
        case 6:Tcmp1 = Tb;Tcmp2 = Tc;Tcmp3 = Ta;break;
 80011f2:	eef0 7a66 	vmov.f32	s15, s13
 80011f6:	e011      	b.n	800121c <svm_set+0x174>
        case 3:Tcmp1 = Ta;Tcmp2 = Tb;Tcmp3 = Tc;break;
 80011f8:	eeb0 6a47 	vmov.f32	s12, s14
 80011fc:	eeb0 7a67 	vmov.f32	s14, s15
        case 4:Tcmp1 = Tc;Tcmp2 = Tb;Tcmp3 = Ta;break;
 8001200:	eef0 7a46 	vmov.f32	s15, s12
 8001204:	e7d5      	b.n	80011b2 <svm_set+0x10a>
 8001206:	eeb0 6a47 	vmov.f32	s12, s14
 800120a:	eeb0 7a66 	vmov.f32	s14, s13
 800120e:	eef0 6a67 	vmov.f32	s13, s15
 8001212:	e7f5      	b.n	8001200 <svm_set+0x158>
        case 5:Tcmp1 = Tc;Tcmp2 = Ta;Tcmp3 = Tb;break;
 8001214:	eeb0 6a47 	vmov.f32	s12, s14
 8001218:	eeb0 7a66 	vmov.f32	s14, s13
        case 6:Tcmp1 = Tb;Tcmp2 = Tc;Tcmp3 = Ta;break;
 800121c:	eef0 6a46 	vmov.f32	s13, s12
 8001220:	e7c7      	b.n	80011b2 <svm_set+0x10a>
 8001222:	eeb0 6a67 	vmov.f32	s12, s15
 8001226:	e7e4      	b.n	80011f2 <svm_set+0x14a>
 8001228:	47000000 	.word	0x47000000
 800122c:	3fddb3d7 	.word	0x3fddb3d7
 8001230:	3f5db3d7 	.word	0x3f5db3d7
 8001234:	00000000 	.word	0x00000000
 8001238:	461c4000 	.word	0x461c4000

0800123c <cbvprintf_package>:
	return cb(str, strl, ctx);
}

int cbvprintf_package(void *packaged, size_t len, uint32_t flags,
		      const char *fmt, va_list ap)
{
 800123c:	e92d 4ff0 	stmdb	sp!, {r4, r5, r6, r7, r8, r9, sl, fp, lr}
 8001240:	b091      	sub	sp, #68	; 0x44
	int fros_cnt = 1 + Z_CBPRINTF_PACKAGE_FIRST_RO_STR_CNT_GET(flags);
	bool is_str_arg = false;
	union cbprintf_package_hdr *pkg_hdr = packaged;

	/* Buffer must be aligned at least to size of a pointer. */
	if ((uintptr_t)packaged % sizeof(void *)) {
 8001242:	0784      	lsls	r4, r0, #30
{
 8001244:	4605      	mov	r5, r0
 8001246:	460e      	mov	r6, r1
 8001248:	9300      	str	r3, [sp, #0]
	bool rws_pos_en = !!(flags & CBPRINTF_PACKAGE_ADD_RW_STR_POS);
 800124a:	f002 0304 	and.w	r3, r2, #4
 800124e:	f8dd 8068 	ldr.w	r8, [sp, #104]	; 0x68
 8001252:	9302      	str	r3, [sp, #8]
	int fros_cnt = 1 + Z_CBPRINTF_PACKAGE_FIRST_RO_STR_CNT_GET(flags);
 8001254:	f3c2 03c2 	ubfx	r3, r2, #3, #3
{
 8001258:	9203      	str	r2, [sp, #12]
	int fros_cnt = 1 + Z_CBPRINTF_PACKAGE_FIRST_RO_STR_CNT_GET(flags);
 800125a:	f103 0301 	add.w	r3, r3, #1
 800125e:	9305      	str	r3, [sp, #20]
	if ((uintptr_t)packaged % sizeof(void *)) {
 8001260:	f040 81ba 	bne.w	80015d8 <cbvprintf_package+0x39c>
	 * which is guaranteed to be at least 4 bytes, we just reserve
	 * multiple of pointer size for the above to preserve alignment.
	 *
	 * Refer to union cbprintf_package_hdr for more details.
	 */
	buf += sizeof(*pkg_hdr);
 8001264:	1d04      	adds	r4, r0, #4
	 * When buf0 is NULL we don't store anything.
	 * Instead we count the needed space to store the data.
	 * In this case, incoming len argument indicates the anticipated
	 * buffer "misalignment" offset.
	 */
	if (buf0 == NULL) {
 8001266:	b130      	cbz	r0, 8001276 <cbvprintf_package+0x3a>

	/*
	 * Otherwise we must ensure we can store at least
	 * the pointer to the format string itself.
	 */
	if ((buf0 != NULL) && (BUF_OFFSET + sizeof(char *)) > len) {
 8001268:	2907      	cmp	r1, #7
 800126a:	d809      	bhi.n	8001280 <cbvprintf_package+0x44>
		return -ENOSPC;
 800126c:	f06f 001b 	mvn.w	r0, #27
	return BUF_OFFSET;

#undef BUF_OFFSET
#undef STR_POS_RO_FLAG
#undef STR_POS_MASK
}
 8001270:	b011      	add	sp, #68	; 0x44
 8001272:	e8bd 8ff0 	ldmia.w	sp!, {r4, r5, r6, r7, r8, r9, sl, fp, pc}
		buf += len % CBPRINTF_PACKAGE_ALIGNMENT;
 8001276:	f001 0607 	and.w	r6, r1, #7
 800127a:	4434      	add	r4, r6
		len = CBPRINTF_PACKAGE_ALIGNMENT - (len % CBPRINTF_PACKAGE_ALIGNMENT);
 800127c:	f1c6 0608 	rsb	r6, r6, #8
	--fmt;
 8001280:	9b00      	ldr	r3, [sp, #0]
	unsigned int s_ro_cnt = 0; /* number of ro strings */
 8001282:	f04f 0900 	mov.w	r9, #0
	align = VA_STACK_ALIGN(char *);
 8001286:	f04f 0a04 	mov.w	sl, #4
	--fmt;
 800128a:	1e59      	subs	r1, r3, #1
	int arg_idx	      = -1; /* Argument index. Preincremented thus starting from -1.*/
 800128c:	f04f 33ff 	mov.w	r3, #4294967295	; 0xffffffff
	unsigned int s_idx = 0;    /* index into str_ptr_pos[] */
 8001290:	464f      	mov	r7, r9
	bool parsing = false;
 8001292:	46cb      	mov	fp, r9
	int arg_idx	      = -1; /* Argument index. Preincremented thus starting from -1.*/
 8001294:	9301      	str	r3, [sp, #4]
	size = sizeof(char *);
 8001296:	4653      	mov	r3, sl
	unsigned int s_rw_cnt = 0; /* number of rw strings */
 8001298:	f8cd 9010 	str.w	r9, [sp, #16]
			if (buf0 != NULL) {
 800129c:	b10d      	cbz	r5, 80012a2 <cbvprintf_package+0x66>
				*(const char **)buf = s;
 800129e:	9800      	ldr	r0, [sp, #0]
 80012a0:	6020      	str	r0, [r4, #0]
			bool is_ro = (fros_cnt-- > 0) ? true : ptr_in_rodata(s);
 80012a2:	9805      	ldr	r0, [sp, #20]
 80012a4:	2800      	cmp	r0, #0
 80012a6:	f300 80e8 	bgt.w	800147a <cbvprintf_package+0x23e>
#else
	#define RO_START 0
	#define RO_END 0
#endif

	return (((const char *)addr >= (const char *)RO_START) &&
 80012aa:	4898      	ldr	r0, [pc, #608]	; (800150c <cbvprintf_package+0x2d0>)
 80012ac:	9a00      	ldr	r2, [sp, #0]
 80012ae:	4282      	cmp	r2, r0
 80012b0:	d303      	bcc.n	80012ba <cbvprintf_package+0x7e>
 80012b2:	4897      	ldr	r0, [pc, #604]	; (8001510 <cbvprintf_package+0x2d4>)
 80012b4:	4282      	cmp	r2, r0
 80012b6:	f0c0 80e0 	bcc.w	800147a <cbvprintf_package+0x23e>
				if (do_ro && s_ptr_idx > STR_POS_MASK) {
 80012ba:	9a03      	ldr	r2, [sp, #12]
				uint32_t s_ptr_idx = BUF_OFFSET / sizeof(int);
 80012bc:	eba4 0e05 	sub.w	lr, r4, r5
				if (do_ro && s_ptr_idx > STR_POS_MASK) {
 80012c0:	0792      	lsls	r2, r2, #30
				uint32_t s_ptr_idx = BUF_OFFSET / sizeof(int);
 80012c2:	ea4f 009e 	mov.w	r0, lr, lsr #2
				if (do_ro && s_ptr_idx > STR_POS_MASK) {
 80012c6:	f100 8103 	bmi.w	80014d0 <cbvprintf_package+0x294>
				if (s_idx >= ARRAY_SIZE(str_ptr_pos)) {
 80012ca:	2f0f      	cmp	r7, #15
 80012cc:	f200 80b1 	bhi.w	8001432 <cbvprintf_package+0x1f6>
				if (buf0 != NULL) {
 80012d0:	2d00      	cmp	r5, #0
 80012d2:	f000 8105 	beq.w	80014e0 <cbvprintf_package+0x2a4>
					str_ptr_pos[s_idx] = s_ptr_idx;
 80012d6:	f107 0240 	add.w	r2, r7, #64	; 0x40
 80012da:	eb0d 0c02 	add.w	ip, sp, r2
					str_ptr_arg[s_idx] = arg_idx;
 80012de:	9a01      	ldr	r2, [sp, #4]
					str_ptr_pos[s_idx] = s_ptr_idx;
 80012e0:	f80c 0c20 	strb.w	r0, [ip, #-32]
					str_ptr_arg[s_idx] = arg_idx;
 80012e4:	f80c 2c10 	strb.w	r2, [ip, #-16]
						s_rw_cnt++;
 80012e8:	9804      	ldr	r0, [sp, #16]
 80012ea:	3001      	adds	r0, #1
 80012ec:	9004      	str	r0, [sp, #16]
 80012ee:	e0e7      	b.n	80014c0 <cbvprintf_package+0x284>
			switch (*fmt) {
 80012f0:	287a      	cmp	r0, #122	; 0x7a
 80012f2:	d85d      	bhi.n	80013b0 <cbvprintf_package+0x174>
 80012f4:	284b      	cmp	r0, #75	; 0x4b
 80012f6:	d80e      	bhi.n	8001316 <cbvprintf_package+0xda>
 80012f8:	2847      	cmp	r0, #71	; 0x47
 80012fa:	d859      	bhi.n	80013b0 <cbvprintf_package+0x174>
 80012fc:	2829      	cmp	r0, #41	; 0x29
 80012fe:	d82d      	bhi.n	800135c <cbvprintf_package+0x120>
 8001300:	2825      	cmp	r0, #37	; 0x25
 8001302:	d052      	beq.n	80013aa <cbvprintf_package+0x16e>
 8001304:	d854      	bhi.n	80013b0 <cbvprintf_package+0x174>
 8001306:	2820      	cmp	r0, #32
 8001308:	d07a      	beq.n	8001400 <cbvprintf_package+0x1c4>
 800130a:	3823      	subs	r0, #35	; 0x23
 800130c:	f1d0 0b00 	rsbs	fp, r0, #0
 8001310:	eb4b 0b00 	adc.w	fp, fp, r0
 8001314:	e074      	b.n	8001400 <cbvprintf_package+0x1c4>
 8001316:	384c      	subs	r0, #76	; 0x4c
 8001318:	282e      	cmp	r0, #46	; 0x2e
 800131a:	d849      	bhi.n	80013b0 <cbvprintf_package+0x174>
 800131c:	e8df f000 	tbb	[pc, r0]
 8001320:	48484870 	.word	0x48484870
 8001324:	48484848 	.word	0x48484848
 8001328:	48484848 	.word	0x48484848
 800132c:	4848484b 	.word	0x4848484b
 8001330:	48484848 	.word	0x48484848
 8001334:	4b485948 	.word	0x4b485948
 8001338:	5959594b 	.word	0x5959594b
 800133c:	486d4b70 	.word	0x486d4b70
 8001340:	4b184870 	.word	0x4b184870
 8001344:	82484818 	.word	0x82484818
 8001348:	48484b7f 	.word	0x48484b7f
 800134c:	484b      	.short	0x484b
 800134e:	7f          	.byte	0x7f
 800134f:	00          	.byte	0x00
 8001350:	2000      	movs	r0, #0
 8001352:	f04f 0b00 	mov.w	fp, #0
				align = VA_STACK_ALIGN(void *);
 8001356:	f04f 0a04 	mov.w	sl, #4
 800135a:	e038      	b.n	80013ce <cbvprintf_package+0x192>
			switch (*fmt) {
 800135c:	382a      	subs	r0, #42	; 0x2a
 800135e:	2201      	movs	r2, #1
 8001360:	b2c0      	uxtb	r0, r0
 8001362:	fa02 f000 	lsl.w	r0, r2, r0
 8001366:	ea10 0f0e 	tst.w	r0, lr
 800136a:	d149      	bne.n	8001400 <cbvprintf_package+0x1c4>
 800136c:	f010 5c62 	ands.w	ip, r0, #947912704	; 0x38800000
 8001370:	d12f      	bne.n	80013d2 <cbvprintf_package+0x196>
 8001372:	ea10 0b02 	ands.w	fp, r0, r2
 8001376:	d043      	beq.n	8001400 <cbvprintf_package+0x1c4>
 8001378:	4660      	mov	r0, ip
		buf = ROUND_UP(buf, align);
 800137a:	3c01      	subs	r4, #1
 800137c:	4454      	add	r4, sl
 800137e:	fbb4 f4fa 	udiv	r4, r4, sl
 8001382:	fb0a f404 	mul.w	r4, sl, r4
		if ((buf0 != NULL) && (BUF_OFFSET + size) > len) {
 8001386:	2d00      	cmp	r5, #0
 8001388:	d061      	beq.n	800144e <cbvprintf_package+0x212>
 800138a:	eba3 0c05 	sub.w	ip, r3, r5
 800138e:	44a4      	add	ip, r4
 8001390:	45b4      	cmp	ip, r6
 8001392:	f63f af6b 	bhi.w	800126c <cbvprintf_package+0x30>
		if (is_str_arg) {
 8001396:	2800      	cmp	r0, #0
 8001398:	d168      	bne.n	800146c <cbvprintf_package+0x230>
		} else if (size == sizeof(int)) {
 800139a:	2b04      	cmp	r3, #4
 800139c:	d147      	bne.n	800142e <cbvprintf_package+0x1f2>
			int v = va_arg(ap, int);
 800139e:	f858 3b04 	ldr.w	r3, [r8], #4
				*(int *)buf = v;
 80013a2:	6023      	str	r3, [r4, #0]
			buf += sizeof(int);
 80013a4:	3404      	adds	r4, #4
 80013a6:	2304      	movs	r3, #4
 80013a8:	e02a      	b.n	8001400 <cbvprintf_package+0x1c4>
				arg_idx--;
 80013aa:	9a01      	ldr	r2, [sp, #4]
 80013ac:	3a01      	subs	r2, #1
 80013ae:	9201      	str	r2, [sp, #4]
				parsing = false;
 80013b0:	f04f 0b00 	mov.w	fp, #0
				continue;
 80013b4:	e024      	b.n	8001400 <cbvprintf_package+0x1c4>
				if (fmt[-1] == 'l') {
 80013b6:	f811 0c01 	ldrb.w	r0, [r1, #-1]
 80013ba:	286c      	cmp	r0, #108	; 0x6c
 80013bc:	d134      	bne.n	8001428 <cbvprintf_package+0x1ec>
					if (fmt[-2] == 'l') {
 80013be:	f811 3c02 	ldrb.w	r3, [r1, #-2]
 80013c2:	2000      	movs	r0, #0
 80013c4:	2b6c      	cmp	r3, #108	; 0x6c
				parsing = false;
 80013c6:	4683      	mov	fp, r0
					if (fmt[-2] == 'l') {
 80013c8:	d1c5      	bne.n	8001356 <cbvprintf_package+0x11a>
						align = VA_STACK_ALIGN(long long);
 80013ca:	f04f 0a08 	mov.w	sl, #8
				size = sizeof(void *);
 80013ce:	4653      	mov	r3, sl
 80013d0:	e7d3      	b.n	800137a <cbvprintf_package+0x13e>
					v.ld = va_arg(ap, long double);
 80013d2:	f108 0807 	add.w	r8, r8, #7
				buf = ROUND_UP(buf, align);
 80013d6:	3407      	adds	r4, #7
					v.ld = va_arg(ap, long double);
 80013d8:	f028 0807 	bic.w	r8, r8, #7
				buf = ROUND_UP(buf, align);
 80013dc:	f024 0407 	bic.w	r4, r4, #7
					v.ld = va_arg(ap, long double);
 80013e0:	e8f8 ab02 	ldrd	sl, fp, [r8], #8
				if (buf0 != NULL) {
 80013e4:	b135      	cbz	r5, 80013f4 <cbvprintf_package+0x1b8>
					if (BUF_OFFSET + size > len) {
 80013e6:	9806      	ldr	r0, [sp, #24]
 80013e8:	4420      	add	r0, r4
 80013ea:	42b0      	cmp	r0, r6
 80013ec:	f63f af3e 	bhi.w	800126c <cbvprintf_package+0x30>
						*(long double *)buf = v.ld;
 80013f0:	e9c4 ab00 	strd	sl, fp, [r4]
				buf += size;
 80013f4:	3408      	adds	r4, #8
				parsing = false;
 80013f6:	f04f 0b00 	mov.w	fp, #0
			switch (*fmt) {
 80013fa:	f04f 0a08 	mov.w	sl, #8
 80013fe:	4653      	mov	r3, sl
			if (*++fmt == '\0') {
 8001400:	f811 0f01 	ldrb.w	r0, [r1, #1]!
 8001404:	2800      	cmp	r0, #0
 8001406:	d078      	beq.n	80014fa <cbvprintf_package+0x2be>
			if (!parsing) {
 8001408:	f1bb 0f00 	cmp.w	fp, #0
 800140c:	f47f af70 	bne.w	80012f0 <cbvprintf_package+0xb4>
				if (*fmt == '%') {
 8001410:	2825      	cmp	r0, #37	; 0x25
 8001412:	d1f5      	bne.n	8001400 <cbvprintf_package+0x1c4>
					arg_idx++;
 8001414:	9b01      	ldr	r3, [sp, #4]
					parsing = true;
 8001416:	f04f 0b01 	mov.w	fp, #1
					arg_idx++;
 800141a:	3301      	adds	r3, #1
 800141c:	9301      	str	r3, [sp, #4]
				align = VA_STACK_ALIGN(size_t);
 800141e:	f04f 0a04 	mov.w	sl, #4
 8001422:	e7ec      	b.n	80013fe <cbvprintf_package+0x1c2>
			switch (*fmt) {
 8001424:	4658      	mov	r0, fp
 8001426:	e794      	b.n	8001352 <cbvprintf_package+0x116>
 8001428:	2000      	movs	r0, #0
				parsing = false;
 800142a:	4683      	mov	fp, r0
 800142c:	e7a5      	b.n	800137a <cbvprintf_package+0x13e>
		} else if (size == sizeof(long long)) {
 800142e:	2b08      	cmp	r3, #8
 8001430:	d002      	beq.n	8001438 <cbvprintf_package+0x1fc>
					return -EINVAL;
 8001432:	f06f 0015 	mvn.w	r0, #21
 8001436:	e71b      	b.n	8001270 <cbvprintf_package+0x34>
			long long v = va_arg(ap, long long);
 8001438:	f108 0807 	add.w	r8, r8, #7
 800143c:	f028 0807 	bic.w	r8, r8, #7
 8001440:	ecb8 7b02 	vldmia	r8!, {d7}
					*(long long *)buf = v;
 8001444:	ed84 7b00 	vstr	d7, [r4]
			buf += sizeof(long long);
 8001448:	3408      	adds	r4, #8
 800144a:	2308      	movs	r3, #8
 800144c:	e7d8      	b.n	8001400 <cbvprintf_package+0x1c4>
		if (is_str_arg) {
 800144e:	b968      	cbnz	r0, 800146c <cbvprintf_package+0x230>
		} else if (size == sizeof(int)) {
 8001450:	2b04      	cmp	r3, #4
 8001452:	d102      	bne.n	800145a <cbvprintf_package+0x21e>
			int v = va_arg(ap, int);
 8001454:	f108 0804 	add.w	r8, r8, #4
			if (buf0 != NULL) {
 8001458:	e7a4      	b.n	80013a4 <cbvprintf_package+0x168>
		} else if (size == sizeof(long long)) {
 800145a:	2b08      	cmp	r3, #8
 800145c:	d1e9      	bne.n	8001432 <cbvprintf_package+0x1f6>
			long long v = va_arg(ap, long long);
 800145e:	f108 0807 	add.w	r8, r8, #7
 8001462:	f028 0807 	bic.w	r8, r8, #7
 8001466:	f108 0808 	add.w	r8, r8, #8
			if (buf0 != NULL) {
 800146a:	e7ed      	b.n	8001448 <cbvprintf_package+0x20c>
			bool is_ro = (fros_cnt-- > 0) ? true : ptr_in_rodata(s);
 800146c:	9805      	ldr	r0, [sp, #20]
 800146e:	3801      	subs	r0, #1
 8001470:	9005      	str	r0, [sp, #20]
			s = va_arg(ap, char *);
 8001472:	f858 0b04 	ldr.w	r0, [r8], #4
 8001476:	9000      	str	r0, [sp, #0]
 8001478:	e710      	b.n	800129c <cbvprintf_package+0x60>
			if (is_ro && !do_ro) {
 800147a:	9a03      	ldr	r2, [sp, #12]
 800147c:	0790      	lsls	r0, r2, #30
 800147e:	d520      	bpl.n	80014c2 <cbvprintf_package+0x286>
				uint32_t s_ptr_idx = BUF_OFFSET / sizeof(int);
 8001480:	eba4 0e05 	sub.w	lr, r4, r5
			bool is_ro = (fros_cnt-- > 0) ? true : ptr_in_rodata(s);
 8001484:	f04f 0c01 	mov.w	ip, #1
				uint32_t s_ptr_idx = BUF_OFFSET / sizeof(int);
 8001488:	ea4f 009e 	mov.w	r0, lr, lsr #2
				if (do_ro && s_ptr_idx > STR_POS_MASK) {
 800148c:	f5be 7f00 	cmp.w	lr, #512	; 0x200
 8001490:	d2cf      	bcs.n	8001432 <cbvprintf_package+0x1f6>
				if (s_idx >= ARRAY_SIZE(str_ptr_pos)) {
 8001492:	2f0f      	cmp	r7, #15
 8001494:	d8cd      	bhi.n	8001432 <cbvprintf_package+0x1f6>
				if (buf0 != NULL) {
 8001496:	b1f5      	cbz	r5, 80014d6 <cbvprintf_package+0x29a>
					str_ptr_pos[s_idx] = s_ptr_idx;
 8001498:	f107 0240 	add.w	r2, r7, #64	; 0x40
 800149c:	b2c0      	uxtb	r0, r0
 800149e:	eb0d 0e02 	add.w	lr, sp, r2
					str_ptr_arg[s_idx] = arg_idx;
 80014a2:	9a01      	ldr	r2, [sp, #4]
					str_ptr_pos[s_idx] = s_ptr_idx;
 80014a4:	f80e 0c20 	strb.w	r0, [lr, #-32]
					str_ptr_arg[s_idx] = arg_idx;
 80014a8:	f80e 2c10 	strb.w	r2, [lr, #-16]
					if (is_ro) {
 80014ac:	f1bc 0f00 	cmp.w	ip, #0
 80014b0:	f43f af1a 	beq.w	80012e8 <cbvprintf_package+0xac>
						str_ptr_pos[s_idx] |= STR_POS_RO_FLAG;
 80014b4:	f060 007f 	orn	r0, r0, #127	; 0x7f
						s_ro_cnt++;
 80014b8:	f109 0901 	add.w	r9, r9, #1
						str_ptr_pos[s_idx] |= STR_POS_RO_FLAG;
 80014bc:	f80e 0c20 	strb.w	r0, [lr, #-32]
				s_idx++;
 80014c0:	3701      	adds	r7, #1
					if (BUF_OFFSET + size > len) {
 80014c2:	f1c5 0208 	rsb	r2, r5, #8
			buf += sizeof(char *);
 80014c6:	3404      	adds	r4, #4
			switch (*fmt) {
 80014c8:	f64f 7eda 	movw	lr, #65498	; 0xffda
					if (BUF_OFFSET + size > len) {
 80014cc:	9206      	str	r2, [sp, #24]
 80014ce:	e797      	b.n	8001400 <cbvprintf_package+0x1c4>
			bool is_ro = (fros_cnt-- > 0) ? true : ptr_in_rodata(s);
 80014d0:	f04f 0c00 	mov.w	ip, #0
 80014d4:	e7da      	b.n	800148c <cbvprintf_package+0x250>
				} else if (is_ro) {
 80014d6:	f1bc 0f00 	cmp.w	ip, #0
 80014da:	d001      	beq.n	80014e0 <cbvprintf_package+0x2a4>
					len += 1;
 80014dc:	3601      	adds	r6, #1
 80014de:	e7ef      	b.n	80014c0 <cbvprintf_package+0x284>
				} else if (rws_pos_en) {
 80014e0:	9a02      	ldr	r2, [sp, #8]
					len += 2;
 80014e2:	3602      	adds	r6, #2
				} else if (rws_pos_en) {
 80014e4:	2a00      	cmp	r2, #0
 80014e6:	d1eb      	bne.n	80014c0 <cbvprintf_package+0x284>
					len += strlen(s) + 1 + 1;
 80014e8:	9800      	ldr	r0, [sp, #0]
 80014ea:	e9cd 3106 	strd	r3, r1, [sp, #24]
 80014ee:	f7fe ff07 	bl	8000300 <strlen>
 80014f2:	4406      	add	r6, r0
 80014f4:	e9dd 3106 	ldrd	r3, r1, [sp, #24]
 80014f8:	e7e2      	b.n	80014c0 <cbvprintf_package+0x284>
	if ((BUF_OFFSET / sizeof(int)) > 255) {
 80014fa:	1b63      	subs	r3, r4, r5
 80014fc:	f5b3 6f80 	cmp.w	r3, #1024	; 0x400
 8001500:	d297      	bcs.n	8001432 <cbvprintf_package+0x1f6>
	if (buf0 == NULL) {
 8001502:	b93d      	cbnz	r5, 8001514 <cbvprintf_package+0x2d8>
		return BUF_OFFSET + len - CBPRINTF_PACKAGE_ALIGNMENT;
 8001504:	f1a6 0408 	sub.w	r4, r6, #8
 8001508:	18e0      	adds	r0, r4, r3
 800150a:	e6b1      	b.n	8001270 <cbvprintf_package+0x34>
 800150c:	0800847c 	.word	0x0800847c
 8001510:	0800a8f8 	.word	0x0800a8f8
	pkg_hdr->desc.len = BUF_OFFSET / sizeof(int);
 8001514:	089b      	lsrs	r3, r3, #2
	if (rws_pos_en) {
 8001516:	9a02      	ldr	r2, [sp, #8]
	*(char **)buf0 = NULL;
 8001518:	6028      	str	r0, [r5, #0]
	pkg_hdr->desc.len = BUF_OFFSET / sizeof(int);
 800151a:	702b      	strb	r3, [r5, #0]
		pkg_hdr->desc.rw_str_cnt = s_rw_cnt;
 800151c:	f89d 3010 	ldrb.w	r3, [sp, #16]
	if (rws_pos_en) {
 8001520:	b1c2      	cbz	r2, 8001554 <cbvprintf_package+0x318>
		pkg_hdr->desc.rw_str_cnt = s_rw_cnt;
 8001522:	70eb      	strb	r3, [r5, #3]
	pkg_hdr->desc.ro_str_cnt = s_ro_cnt;
 8001524:	f885 9002 	strb.w	r9, [r5, #2]
	if (s_ro_cnt != 0U) {
 8001528:	f1b9 0f00 	cmp.w	r9, #0
 800152c:	d005      	beq.n	800153a <cbvprintf_package+0x2fe>
 800152e:	a808      	add	r0, sp, #32
		for (i = 0; i < s_idx; i++) {
 8001530:	2200      	movs	r2, #0
			if ((BUF_OFFSET + 1) > len) {
 8001532:	f1c5 0c01 	rsb	ip, r5, #1
		for (i = 0; i < s_idx; i++) {
 8001536:	4297      	cmp	r7, r2
 8001538:	d10e      	bne.n	8001558 <cbvprintf_package+0x31c>
		if ((BUF_OFFSET + 1 + size) > len) {
 800153a:	f1c5 0301 	rsb	r3, r5, #1
 800153e:	f10d 0820 	add.w	r8, sp, #32
			size = 0;
 8001542:	f04f 0a00 	mov.w	sl, #0
			*(uint8_t *)buf = str_ptr_arg[i];
 8001546:	f10d 0b30 	add.w	fp, sp, #48	; 0x30
		if ((BUF_OFFSET + 1 + size) > len) {
 800154a:	9301      	str	r3, [sp, #4]
	for (i = 0; i < s_idx; i++) {
 800154c:	4557      	cmp	r7, sl
 800154e:	d112      	bne.n	8001576 <cbvprintf_package+0x33a>
	return BUF_OFFSET;
 8001550:	1b60      	subs	r0, r4, r5
 8001552:	e68d      	b.n	8001270 <cbvprintf_package+0x34>
		pkg_hdr->desc.str_cnt = s_rw_cnt;
 8001554:	706b      	strb	r3, [r5, #1]
		pkg_hdr->desc.rw_str_cnt = 0;
 8001556:	e7e5      	b.n	8001524 <cbvprintf_package+0x2e8>
			if (!(str_ptr_pos[i] & STR_POS_RO_FLAG)) {
 8001558:	f810 3b01 	ldrb.w	r3, [r0], #1
 800155c:	0619      	lsls	r1, r3, #24
 800155e:	d508      	bpl.n	8001572 <cbvprintf_package+0x336>
			if ((BUF_OFFSET + 1) > len) {
 8001560:	eb0c 0e04 	add.w	lr, ip, r4
			uint8_t pos = str_ptr_pos[i] & STR_POS_MASK;
 8001564:	f003 037f 	and.w	r3, r3, #127	; 0x7f
			if ((BUF_OFFSET + 1) > len) {
 8001568:	45b6      	cmp	lr, r6
 800156a:	f63f ae7f 	bhi.w	800126c <cbvprintf_package+0x30>
			*(uint8_t *)buf = pos;
 800156e:	f804 3b01 	strb.w	r3, [r4], #1
		for (i = 0; i < s_idx; i++) {
 8001572:	3201      	adds	r2, #1
 8001574:	e7df      	b.n	8001536 <cbvprintf_package+0x2fa>
		if (s_ro_cnt && str_ptr_pos[i] & STR_POS_RO_FLAG) {
 8001576:	f1b9 0f00 	cmp.w	r9, #0
 800157a:	d003      	beq.n	8001584 <cbvprintf_package+0x348>
 800157c:	f998 2000 	ldrsb.w	r2, [r8]
 8001580:	2a00      	cmp	r2, #0
 8001582:	db17      	blt.n	80015b4 <cbvprintf_package+0x378>
		if (rws_pos_en) {
 8001584:	9b02      	ldr	r3, [sp, #8]
 8001586:	b1d3      	cbz	r3, 80015be <cbvprintf_package+0x382>
			*(uint8_t *)buf = str_ptr_arg[i];
 8001588:	f81a 200b 	ldrb.w	r2, [sl, fp]
 800158c:	f804 2b01 	strb.w	r2, [r4], #1
			size = 0;
 8001590:	2200      	movs	r2, #0
		if ((BUF_OFFSET + 1 + size) > len) {
 8001592:	9b01      	ldr	r3, [sp, #4]
 8001594:	1918      	adds	r0, r3, r4
 8001596:	4410      	add	r0, r2
 8001598:	42b0      	cmp	r0, r6
 800159a:	f63f ae67 	bhi.w	800126c <cbvprintf_package+0x30>
		*(uint8_t *)buf = str_ptr_pos[i];
 800159e:	f898 0000 	ldrb.w	r0, [r8]
		memcpy((void *)buf, (uint8_t *)s, size);
 80015a2:	9900      	ldr	r1, [sp, #0]
		*(uint8_t *)buf = str_ptr_pos[i];
 80015a4:	f804 0b01 	strb.w	r0, [r4], #1
		memcpy((void *)buf, (uint8_t *)s, size);
 80015a8:	4620      	mov	r0, r4
 80015aa:	9203      	str	r2, [sp, #12]
 80015ac:	f006 fd7b 	bl	80080a6 <memcpy>
		buf += size;
 80015b0:	9a03      	ldr	r2, [sp, #12]
 80015b2:	4414      	add	r4, r2
	for (i = 0; i < s_idx; i++) {
 80015b4:	f10a 0a01 	add.w	sl, sl, #1
 80015b8:	f108 0801 	add.w	r8, r8, #1
 80015bc:	e7c6      	b.n	800154c <cbvprintf_package+0x310>
			s = *(char **)(buf0 + str_ptr_pos[i] * sizeof(int));
 80015be:	f898 2000 	ldrb.w	r2, [r8]
 80015c2:	f855 3022 	ldr.w	r3, [r5, r2, lsl #2]
 80015c6:	9300      	str	r3, [sp, #0]
			*(char **)(buf0 + str_ptr_pos[i] * sizeof(int)) = NULL;
 80015c8:	9b02      	ldr	r3, [sp, #8]
			size = strlen(s) + 1;
 80015ca:	9800      	ldr	r0, [sp, #0]
			*(char **)(buf0 + str_ptr_pos[i] * sizeof(int)) = NULL;
 80015cc:	f845 3022 	str.w	r3, [r5, r2, lsl #2]
			size = strlen(s) + 1;
 80015d0:	f7fe fe96 	bl	8000300 <strlen>
 80015d4:	1c42      	adds	r2, r0, #1
 80015d6:	e7dc      	b.n	8001592 <cbvprintf_package+0x356>
		return -EFAULT;
 80015d8:	f06f 000d 	mvn.w	r0, #13
 80015dc:	e648      	b.n	8001270 <cbvprintf_package+0x34>
 80015de:	bf00      	nop

080015e0 <cbprintf_package_convert>:
			     cbprintf_convert_cb cb,
			     void *ctx,
			     uint32_t flags,
			     uint16_t *strl,
			     size_t strl_len)
{
 80015e0:	e92d 4ff0 	stmdb	sp!, {r4, r5, r6, r7, r8, r9, sl, fp, lr}
 80015e4:	b097      	sub	sp, #92	; 0x5c
 80015e6:	4604      	mov	r4, r0
	bool fmt_present = flags & CBPRINTF_PACKAGE_CONVERT_PTR_CHECK ? true : false;
	bool rw_cpy;
	bool ro_cpy;
	struct cbprintf_package_desc *in_desc = in_packaged;

	in_len = in_len != 0 ? in_len : get_package_len(in_packaged);
 80015e8:	4689      	mov	r9, r1
{
 80015ea:	af00      	add	r7, sp, #0
	ros_nbr   = buf[2];
 80015ec:	f890 a002 	ldrb.w	sl, [r0, #2]
{
 80015f0:	f8d7 b080 	ldr.w	fp, [r7, #128]	; 0x80
 80015f4:	623b      	str	r3, [r7, #32]
 80015f6:	f3cb 03c0 	ubfx	r3, fp, #3, #1
 80015fa:	62fa      	str	r2, [r7, #44]	; 0x2c
 80015fc:	61bb      	str	r3, [r7, #24]
	in_len = in_len != 0 ? in_len : get_package_len(in_packaged);
 80015fe:	b941      	cbnz	r1, 8001612 <cbprintf_package_convert+0x32>
	s_nbr     = buf[1];
 8001600:	7845      	ldrb	r5, [r0, #1]
	buf += ros_nbr;
 8001602:	7800      	ldrb	r0, [r0, #0]
 8001604:	eb0a 0080 	add.w	r0, sl, r0, lsl #2
 8001608:	4420      	add	r0, r4
	for (unsigned int i = 0; i < s_nbr; i++) {
 800160a:	454d      	cmp	r5, r9
 800160c:	d817      	bhi.n	800163e <cbprintf_package_convert+0x5e>
	return (size_t)(uintptr_t)(buf - start);
 800160e:	eba0 0904 	sub.w	r9, r0, r4
		(flags & CBPRINTF_PACKAGE_CONVERT_RO_STR) == CBPRINTF_PACKAGE_CONVERT_RO_STR;

	/* Get number of RW string indexes in the package and check if copying
	 * includes appending those strings.
	 */
	rws_nbr = in_desc->rw_str_cnt;
 8001612:	78e3      	ldrb	r3, [r4, #3]
 8001614:	61fb      	str	r3, [r7, #28]
	ro_cpy = ros_nbr &&
 8001616:	f1ba 0f00 	cmp.w	sl, #0
 800161a:	d002      	beq.n	8001622 <cbprintf_package_convert+0x42>
 800161c:	f01b 0f01 	tst.w	fp, #1
 8001620:	d116      	bne.n	8001650 <cbprintf_package_convert+0x70>
	rw_cpy = rws_nbr > 0 &&
 8001622:	69fb      	ldr	r3, [r7, #28]
 8001624:	bb53      	cbnz	r3, 800167c <cbprintf_package_convert+0x9c>
	/* If flags are not set or appending request without rw string indexes
	 * present is chosen, just do a simple copy (or length calculation).
	 * Assuming that it is the most common case.
	 */
	if (!rw_cpy && !ro_cpy) {
		if (cb) {
 8001626:	6afb      	ldr	r3, [r7, #44]	; 0x2c
 8001628:	b11b      	cbz	r3, 8001632 <cbprintf_package_convert+0x52>
			cb(in_packaged, in_len, ctx);
 800162a:	6a3a      	ldr	r2, [r7, #32]
 800162c:	4649      	mov	r1, r9
 800162e:	4620      	mov	r0, r4
 8001630:	4798      	blx	r3
		}

		return in_len;
 8001632:	464d      	mov	r5, r9

	/* Empty call (can be interpreted as flushing) */
	(void)cb(NULL, 0, ctx);

	return out_len;
}
 8001634:	4628      	mov	r0, r5
 8001636:	375c      	adds	r7, #92	; 0x5c
 8001638:	46bd      	mov	sp, r7
 800163a:	e8bd 8ff0 	ldmia.w	sp!, {r4, r5, r6, r7, r8, r9, sl, fp, pc}
		buf++;
 800163e:	1c46      	adds	r6, r0, #1
	for (unsigned int i = 0; i < s_nbr; i++) {
 8001640:	f109 0901 	add.w	r9, r9, #1
		buf += strlen((const char *)buf) + 1;
 8001644:	4630      	mov	r0, r6
 8001646:	f7fe fe5b 	bl	8000300 <strlen>
 800164a:	3001      	adds	r0, #1
 800164c:	4430      	add	r0, r6
	for (unsigned int i = 0; i < s_nbr; i++) {
 800164e:	e7dc      	b.n	800160a <cbprintf_package_convert+0x2a>
	rw_cpy = rws_nbr > 0 &&
 8001650:	7823      	ldrb	r3, [r4, #0]
 8001652:	6862      	ldr	r2, [r4, #4]
	args_size = in_desc->len * sizeof(int);
 8001654:	0099      	lsls	r1, r3, #2
	const char *fmt = *(const char **)(buf + sizeof(void *));
 8001656:	627a      	str	r2, [r7, #36]	; 0x24
	if (cb == NULL) {
 8001658:	6afa      	ldr	r2, [r7, #44]	; 0x2c
	args_size = in_desc->len * sizeof(int);
 800165a:	6179      	str	r1, [r7, #20]
	uint8_t *str_pos = &buf[args_size];
 800165c:	eb04 0183 	add.w	r1, r4, r3, lsl #2
	if (cb == NULL) {
 8001660:	2a00      	cmp	r2, #0
 8001662:	f040 8100 	bne.w	8001866 <cbprintf_package_convert+0x286>
		out_len = (int)in_len;
 8001666:	464d      	mov	r5, r9
		if (ro_cpy) {
 8001668:	460e      	mov	r6, r1
 800166a:	eb01 090a 	add.w	r9, r1, sl
	size_t strl_cnt = 0;
 800166e:	f04f 0800 	mov.w	r8, #0
			for (unsigned int i = 0; i < ros_nbr; i++) {
 8001672:	454e      	cmp	r6, r9
 8001674:	d14c      	bne.n	8001710 <cbprintf_package_convert+0x130>
 8001676:	eb01 060a 	add.w	r6, r1, sl
 800167a:	e010      	b.n	800169e <cbprintf_package_convert+0xbe>
	rw_cpy = rws_nbr > 0 &&
 800167c:	f01b 0f02 	tst.w	fp, #2
 8001680:	d0d1      	beq.n	8001626 <cbprintf_package_convert+0x46>
	args_size = in_desc->len * sizeof(int);
 8001682:	7823      	ldrb	r3, [r4, #0]
 8001684:	009a      	lsls	r2, r3, #2
	uint8_t *str_pos = &buf[args_size];
 8001686:	eb04 0183 	add.w	r1, r4, r3, lsl #2
	args_size = in_desc->len * sizeof(int);
 800168a:	617a      	str	r2, [r7, #20]
	const char *fmt = *(const char **)(buf + sizeof(void *));
 800168c:	6862      	ldr	r2, [r4, #4]
 800168e:	627a      	str	r2, [r7, #36]	; 0x24
	if (cb == NULL) {
 8001690:	6afa      	ldr	r2, [r7, #44]	; 0x2c
 8001692:	2a00      	cmp	r2, #0
 8001694:	d177      	bne.n	8001786 <cbprintf_package_convert+0x1a6>
		out_len = (int)in_len;
 8001696:	464d      	mov	r5, r9
			str_pos += ros_nbr;
 8001698:	eb01 060a 	add.w	r6, r1, sl
	size_t strl_cnt = 0;
 800169c:	4690      	mov	r8, r2
		for (unsigned int i = 0; i < rws_nbr; i++) {
 800169e:	f01b 0f05 	tst.w	fp, #5
 80016a2:	bf0c      	ite	eq
 80016a4:	2302      	moveq	r3, #2
 80016a6:	2301      	movne	r3, #1
 80016a8:	62fb      	str	r3, [r7, #44]	; 0x2c
 80016aa:	69fb      	ldr	r3, [r7, #28]
 80016ac:	eb06 0a43 	add.w	sl, r6, r3, lsl #1
			} else if (flags & CBPRINTF_PACKAGE_CONVERT_RW_STR) {
 80016b0:	f00b 0302 	and.w	r3, fp, #2
 80016b4:	62bb      	str	r3, [r7, #40]	; 0x28
		for (unsigned int i = 0; i < rws_nbr; i++) {
 80016b6:	4556      	cmp	r6, sl
 80016b8:	d0bc      	beq.n	8001634 <cbprintf_package_convert+0x54>
			uint8_t arg_idx = *str_pos++;
 80016ba:	f816 1b02 	ldrb.w	r1, [r6], #2
			const char *str = *(const char **)&buf32[arg_pos];
 80016be:	f816 3c01 	ldrb.w	r3, [r6, #-1]
 80016c2:	f854 9023 	ldr.w	r9, [r4, r3, lsl #2]
 80016c6:	4b99      	ldr	r3, [pc, #612]	; (800192c <cbprintf_package_convert+0x34c>)
 80016c8:	4599      	cmp	r9, r3
 80016ca:	d302      	bcc.n	80016d2 <cbprintf_package_convert+0xf2>
 80016cc:	4b98      	ldr	r3, [pc, #608]	; (8001930 <cbprintf_package_convert+0x350>)
 80016ce:	4599      	cmp	r9, r3
 80016d0:	d336      	bcc.n	8001740 <cbprintf_package_convert+0x160>
			if (IS_ENABLED(CONFIG_CBPRINTF_CONVERT_CHECK_PTR) &&
 80016d2:	69bb      	ldr	r3, [r7, #24]
 80016d4:	2b00      	cmp	r3, #0
 80016d6:	d040      	beq.n	800175a <cbprintf_package_convert+0x17a>
			    fmt_present && is_ptr(fmt, arg_idx)) {
 80016d8:	6a78      	ldr	r0, [r7, #36]	; 0x24
 80016da:	f005 fc1e 	bl	8006f1a <is_ptr>
 80016de:	2800      	cmp	r0, #0
 80016e0:	d03b      	beq.n	800175a <cbprintf_package_convert+0x17a>
				LOG_WRN("(unsigned) char * used for %%p argument. "
 80016e2:	46e9      	mov	r9, sp
 80016e4:	b08a      	sub	sp, #40	; 0x28
 80016e6:	466a      	mov	r2, sp
 80016e8:	4b92      	ldr	r3, [pc, #584]	; (8001934 <cbprintf_package_convert+0x354>)
 80016ea:	6153      	str	r3, [r2, #20]
 80016ec:	6a7b      	ldr	r3, [r7, #36]	; 0x24
 80016ee:	e9c2 3106 	strd	r3, r1, [r2, #24]
 80016f2:	f44f 7300 	mov.w	r3, #512	; 0x200
 80016f6:	8413      	strh	r3, [r2, #32]
 80016f8:	4b8f      	ldr	r3, [pc, #572]	; (8001938 <cbprintf_package_convert+0x358>)
 80016fa:	f842 3f10 	str.w	r3, [r2, #16]!
 80016fe:	2300      	movs	r3, #0
 8001700:	f44f 5112 	mov.w	r1, #9344	; 0x2480
 8001704:	488d      	ldr	r0, [pc, #564]	; (800193c <cbprintf_package_convert+0x35c>)
				out_len -= 2;
 8001706:	3d02      	subs	r5, #2
 8001708:	f000 fc48 	bl	8001f9c <z_impl_z_log_msg_static_create>
 800170c:	46cd      	mov	sp, r9
				continue;
 800170e:	e7d2      	b.n	80016b6 <cbprintf_package_convert+0xd6>
				const char *str = *(const char **)&buf32[*str_pos];
 8001710:	f816 3b01 	ldrb.w	r3, [r6], #1
 8001714:	62f9      	str	r1, [r7, #44]	; 0x2c
		return 1 + strlen(str);
 8001716:	f854 0023 	ldr.w	r0, [r4, r3, lsl #2]
 800171a:	f7fe fdf1 	bl	8000300 <strlen>
				if (strl && strl_cnt < strl_len) {
 800171e:	f8d7 3084 	ldr.w	r3, [r7, #132]	; 0x84
		return 1 + strlen(str);
 8001722:	3001      	adds	r0, #1
				if (strl && strl_cnt < strl_len) {
 8001724:	6af9      	ldr	r1, [r7, #44]	; 0x2c
 8001726:	b14b      	cbz	r3, 800173c <cbprintf_package_convert+0x15c>
 8001728:	f8d7 3088 	ldr.w	r3, [r7, #136]	; 0x88
 800172c:	4598      	cmp	r8, r3
					strl[strl_cnt++] = (uint16_t)len;
 800172e:	bf3e      	ittt	cc
 8001730:	f8d7 3084 	ldrcc.w	r3, [r7, #132]	; 0x84
 8001734:	f823 0018 	strhcc.w	r0, [r3, r8, lsl #1]
 8001738:	f108 0801 	addcc.w	r8, r8, #1
				out_len += len;
 800173c:	4405      	add	r5, r0
			for (unsigned int i = 0; i < ros_nbr; i++) {
 800173e:	e798      	b.n	8001672 <cbprintf_package_convert+0x92>
			if (IS_ENABLED(CONFIG_CBPRINTF_CONVERT_CHECK_PTR) &&
 8001740:	69bb      	ldr	r3, [r7, #24]
 8001742:	b123      	cbz	r3, 800174e <cbprintf_package_convert+0x16e>
			    fmt_present && is_ptr(fmt, arg_idx)) {
 8001744:	6a78      	ldr	r0, [r7, #36]	; 0x24
 8001746:	f005 fbe8 	bl	8006f1a <is_ptr>
 800174a:	2800      	cmp	r0, #0
 800174c:	d1c9      	bne.n	80016e2 <cbprintf_package_convert+0x102>
				if (flags & CBPRINTF_PACKAGE_CONVERT_RO_STR) {
 800174e:	f01b 0f01 	tst.w	fp, #1
 8001752:	d105      	bne.n	8001760 <cbprintf_package_convert+0x180>
					out_len -= drop_ro_str_pos ? 2 : 1;
 8001754:	6afb      	ldr	r3, [r7, #44]	; 0x2c
 8001756:	1aed      	subs	r5, r5, r3
 8001758:	e7ad      	b.n	80016b6 <cbprintf_package_convert+0xd6>
			} else if (flags & CBPRINTF_PACKAGE_CONVERT_RW_STR) {
 800175a:	6abb      	ldr	r3, [r7, #40]	; 0x28
 800175c:	2b00      	cmp	r3, #0
 800175e:	d0aa      	beq.n	80016b6 <cbprintf_package_convert+0xd6>
		return 1 + strlen(str);
 8001760:	4648      	mov	r0, r9
 8001762:	f7fe fdcd 	bl	8000300 <strlen>
				if (strl && strl_cnt < strl_len) {
 8001766:	f8d7 3084 	ldr.w	r3, [r7, #132]	; 0x84
 800176a:	b153      	cbz	r3, 8001782 <cbprintf_package_convert+0x1a2>
 800176c:	f8d7 3088 	ldr.w	r3, [r7, #136]	; 0x88
 8001770:	4598      	cmp	r8, r3
		return 1 + strlen(str);
 8001772:	bf3f      	itttt	cc
 8001774:	1c43      	addcc	r3, r0, #1
					strl[strl_cnt++] = (uint16_t)len;
 8001776:	f8d7 2084 	ldrcc.w	r2, [r7, #132]	; 0x84
 800177a:	f822 3018 	strhcc.w	r3, [r2, r8, lsl #1]
 800177e:	f108 0801 	addcc.w	r8, r8, #1
				out_len += (len - 1);
 8001782:	4405      	add	r5, r0
		for (unsigned int i = 0; i < rws_nbr; i++) {
 8001784:	e797      	b.n	80016b6 <cbprintf_package_convert+0xd6>
	} else if (ros_nbr && flags & CBPRINTF_PACKAGE_CONVERT_KEEP_RO_STR) {
 8001786:	f1ba 0f00 	cmp.w	sl, #0
 800178a:	d072      	beq.n	8001872 <cbprintf_package_convert+0x292>
 800178c:	f01b 0604 	ands.w	r6, fp, #4
 8001790:	d072      	beq.n	8001878 <cbprintf_package_convert+0x298>
		keep_cnt = ros_nbr;
 8001792:	46d0      	mov	r8, sl
		scpy_cnt = 0;
 8001794:	2600      	movs	r6, #0
		dst = keep_str_pos;
 8001796:	f107 0048 	add.w	r0, r7, #72	; 0x48
		memcpy(dst, str_pos, ros_nbr);
 800179a:	4652      	mov	r2, sl
 800179c:	613b      	str	r3, [r7, #16]
 800179e:	62b9      	str	r1, [r7, #40]	; 0x28
 80017a0:	f006 fc81 	bl	80080a6 <memcpy>
 80017a4:	6ab9      	ldr	r1, [r7, #40]	; 0x28
 80017a6:	693b      	ldr	r3, [r7, #16]
	str_pos += ros_nbr;
 80017a8:	eb01 020a 	add.w	r2, r1, sl
 80017ac:	69f9      	ldr	r1, [r7, #28]
 80017ae:	62ba      	str	r2, [r7, #40]	; 0x28
	for (unsigned int i = 0; i < rws_nbr; i++) {
 80017b0:	69fa      	ldr	r2, [r7, #28]
 80017b2:	0052      	lsls	r2, r2, #1
 80017b4:	60fa      	str	r2, [r7, #12]
 80017b6:	6aba      	ldr	r2, [r7, #40]	; 0x28
 80017b8:	eb02 0241 	add.w	r2, r2, r1, lsl #1
 80017bc:	613a      	str	r2, [r7, #16]
			if (flags & CBPRINTF_PACKAGE_CONVERT_RW_STR) {
 80017be:	f00b 0202 	and.w	r2, fp, #2
 80017c2:	60ba      	str	r2, [r7, #8]
	for (unsigned int i = 0; i < rws_nbr; i++) {
 80017c4:	693a      	ldr	r2, [r7, #16]
 80017c6:	6ab9      	ldr	r1, [r7, #40]	; 0x28
 80017c8:	428a      	cmp	r2, r1
 80017ca:	d157      	bne.n	800187c <cbprintf_package_convert+0x29c>
	out_desc.rw_str_cnt = (flags & CBPRINTF_PACKAGE_CONVERT_RW_STR) ? 0 : (keep_cnt / 2);
 80017cc:	f01b 0f02 	tst.w	fp, #2
	out_desc.str_cnt = in_desc->str_cnt + scpy_cnt;
 80017d0:	7862      	ldrb	r2, [r4, #1]
	out_desc.rw_str_cnt = (flags & CBPRINTF_PACKAGE_CONVERT_RW_STR) ? 0 : (keep_cnt / 2);
 80017d2:	bf0c      	ite	eq
 80017d4:	ea4f 0158 	moveq.w	r1, r8, lsr #1
 80017d8:	2100      	movne	r1, #0
	out_desc.str_cnt = in_desc->str_cnt + scpy_cnt;
 80017da:	627a      	str	r2, [r7, #36]	; 0x24
	out_desc.ro_str_cnt = (flags & CBPRINTF_PACKAGE_CONVERT_RO_STR) ? 0 :
 80017dc:	f01b 0f01 	tst.w	fp, #1
	out_desc.str_cnt = in_desc->str_cnt + scpy_cnt;
 80017e0:	4432      	add	r2, r6
 80017e2:	b2d2      	uxtb	r2, r2
	out_desc.ro_str_cnt = (flags & CBPRINTF_PACKAGE_CONVERT_RO_STR) ? 0 :
 80017e4:	f040 809f 	bne.w	8001926 <cbprintf_package_convert+0x346>
 80017e8:	f01b 0f04 	tst.w	fp, #4
 80017ec:	bf14      	ite	ne
 80017ee:	4640      	movne	r0, r8
 80017f0:	2000      	moveq	r0, #0
 80017f2:	61bb      	str	r3, [r7, #24]
	*in_desc = out_desc;
 80017f4:	7062      	strb	r2, [r4, #1]
 80017f6:	70a0      	strb	r0, [r4, #2]
	rv = cb(in_packaged, args_size, ctx);
 80017f8:	4620      	mov	r0, r4
	*in_desc = out_desc;
 80017fa:	70e1      	strb	r1, [r4, #3]
	rv = cb(in_packaged, args_size, ctx);
 80017fc:	6a3a      	ldr	r2, [r7, #32]
 80017fe:	6979      	ldr	r1, [r7, #20]
 8001800:	6afb      	ldr	r3, [r7, #44]	; 0x2c
 8001802:	4798      	blx	r3
	if (rv < 0) {
 8001804:	1e05      	subs	r5, r0, #0
 8001806:	f6ff af15 	blt.w	8001634 <cbprintf_package_convert+0x54>
	*in_desc = in_desc_backup;
 800180a:	69bb      	ldr	r3, [r7, #24]
	rv = cb(keep_str_pos, keep_cnt, ctx);
 800180c:	4641      	mov	r1, r8
 800180e:	6a3a      	ldr	r2, [r7, #32]
 8001810:	f107 0048 	add.w	r0, r7, #72	; 0x48
	*in_desc = in_desc_backup;
 8001814:	7023      	strb	r3, [r4, #0]
 8001816:	6a7b      	ldr	r3, [r7, #36]	; 0x24
 8001818:	f884 a002 	strb.w	sl, [r4, #2]
 800181c:	7063      	strb	r3, [r4, #1]
 800181e:	69fb      	ldr	r3, [r7, #28]
 8001820:	70e3      	strb	r3, [r4, #3]
	rv = cb(keep_str_pos, keep_cnt, ctx);
 8001822:	6afb      	ldr	r3, [r7, #44]	; 0x2c
 8001824:	4798      	blx	r3
	if (rv < 0) {
 8001826:	f1b0 0800 	subs.w	r8, r0, #0
 800182a:	f2c0 80bb 	blt.w	80019a4 <cbprintf_package_convert+0x3c4>
	size_t strs_len = in_len - (args_size + ros_nbr + 2 * rws_nbr);
 800182e:	697b      	ldr	r3, [r7, #20]
 8001830:	eba9 010a 	sub.w	r1, r9, sl
	rv = cb(str_pos, strs_len, ctx);
 8001834:	6a3a      	ldr	r2, [r7, #32]
	size_t strs_len = in_len - (args_size + ros_nbr + 2 * rws_nbr);
 8001836:	1ac9      	subs	r1, r1, r3
	rv = cb(str_pos, strs_len, ctx);
 8001838:	68fb      	ldr	r3, [r7, #12]
 800183a:	1ac9      	subs	r1, r1, r3
 800183c:	e9d7 030a 	ldrd	r0, r3, [r7, #40]	; 0x28
 8001840:	4798      	blx	r3
	if (rv < 0) {
 8001842:	2800      	cmp	r0, #0
 8001844:	f2c0 80b0 	blt.w	80019a8 <cbprintf_package_convert+0x3c8>
	out_len += rv;
 8001848:	44a8      	add	r8, r5
	for (unsigned int i = 0; i < scpy_cnt; i++) {
 800184a:	f04f 0b00 	mov.w	fp, #0
		uint8_t loc = cpy_str_pos[i];
 800184e:	f107 0a38 	add.w	sl, r7, #56	; 0x38
	out_len += rv;
 8001852:	eb08 0500 	add.w	r5, r8, r0
	for (unsigned int i = 0; i < scpy_cnt; i++) {
 8001856:	45b3      	cmp	fp, r6
 8001858:	d372      	bcc.n	8001940 <cbprintf_package_convert+0x360>
	(void)cb(NULL, 0, ctx);
 800185a:	2100      	movs	r1, #0
 800185c:	6a3a      	ldr	r2, [r7, #32]
 800185e:	6afb      	ldr	r3, [r7, #44]	; 0x2c
 8001860:	4608      	mov	r0, r1
 8001862:	4798      	blx	r3
	return out_len;
 8001864:	e6e6      	b.n	8001634 <cbprintf_package_convert+0x54>
	if (cb == NULL) {
 8001866:	4656      	mov	r6, sl
 8001868:	f04f 0800 	mov.w	r8, #0
 800186c:	f107 0038 	add.w	r0, r7, #56	; 0x38
 8001870:	e793      	b.n	800179a <cbprintf_package_convert+0x1ba>
		scpy_cnt = 0;
 8001872:	4656      	mov	r6, sl
		keep_cnt = 0;
 8001874:	46d0      	mov	r8, sl
 8001876:	e797      	b.n	80017a8 <cbprintf_package_convert+0x1c8>
 8001878:	46b0      	mov	r8, r6
 800187a:	e795      	b.n	80017a8 <cbprintf_package_convert+0x1c8>
		uint8_t arg_idx = *str_pos++;
 800187c:	6aba      	ldr	r2, [r7, #40]	; 0x28
 800187e:	f812 1b02 	ldrb.w	r1, [r2], #2
		uint8_t arg_pos = *str_pos++;
 8001882:	f812 5c01 	ldrb.w	r5, [r2, #-1]
		uint8_t arg_idx = *str_pos++;
 8001886:	62ba      	str	r2, [r7, #40]	; 0x28
		const char *str = *(const char **)&buf32[arg_pos];
 8001888:	f854 0025 	ldr.w	r0, [r4, r5, lsl #2]
 800188c:	4a27      	ldr	r2, [pc, #156]	; (800192c <cbprintf_package_convert+0x34c>)
 800188e:	4290      	cmp	r0, r2
 8001890:	d302      	bcc.n	8001898 <cbprintf_package_convert+0x2b8>
 8001892:	4a27      	ldr	r2, [pc, #156]	; (8001930 <cbprintf_package_convert+0x350>)
 8001894:	4290      	cmp	r0, r2
 8001896:	d31e      	bcc.n	80018d6 <cbprintf_package_convert+0x2f6>
		if (IS_ENABLED(CONFIG_CBPRINTF_CONVERT_CHECK_PTR) &&
 8001898:	69ba      	ldr	r2, [r7, #24]
 800189a:	b132      	cbz	r2, 80018aa <cbprintf_package_convert+0x2ca>
		    fmt_present && is_ptr(fmt, arg_idx)) {
 800189c:	6a78      	ldr	r0, [r7, #36]	; 0x24
 800189e:	607b      	str	r3, [r7, #4]
 80018a0:	f005 fb3b 	bl	8006f1a <is_ptr>
 80018a4:	687b      	ldr	r3, [r7, #4]
 80018a6:	2800      	cmp	r0, #0
 80018a8:	d18c      	bne.n	80017c4 <cbprintf_package_convert+0x1e4>
			if (flags & CBPRINTF_PACKAGE_CONVERT_RW_STR) {
 80018aa:	68ba      	ldr	r2, [r7, #8]
 80018ac:	bb02      	cbnz	r2, 80018f0 <cbprintf_package_convert+0x310>
				keep_str_pos[keep_cnt++] = arg_idx;
 80018ae:	f108 0228 	add.w	r2, r8, #40	; 0x28
 80018b2:	f107 0c30 	add.w	ip, r7, #48	; 0x30
 80018b6:	f108 0001 	add.w	r0, r8, #1
				keep_str_pos[keep_cnt++] = arg_pos;
 80018ba:	f108 0802 	add.w	r8, r8, #2
				keep_str_pos[keep_cnt++] = arg_idx;
 80018be:	4494      	add	ip, r2
				keep_str_pos[keep_cnt++] = arg_pos;
 80018c0:	f107 0258 	add.w	r2, r7, #88	; 0x58
 80018c4:	fa5f f888 	uxtb.w	r8, r8
 80018c8:	fa52 f080 	uxtab	r0, r2, r0
				keep_str_pos[keep_cnt++] = arg_idx;
 80018cc:	f80c 1c10 	strb.w	r1, [ip, #-16]
				keep_str_pos[keep_cnt++] = arg_pos;
 80018d0:	f800 5c10 	strb.w	r5, [r0, #-16]
	for (unsigned int i = 0; i < rws_nbr; i++) {
 80018d4:	e776      	b.n	80017c4 <cbprintf_package_convert+0x1e4>
		if (IS_ENABLED(CONFIG_CBPRINTF_CONVERT_CHECK_PTR) &&
 80018d6:	69ba      	ldr	r2, [r7, #24]
 80018d8:	b13a      	cbz	r2, 80018ea <cbprintf_package_convert+0x30a>
		    fmt_present && is_ptr(fmt, arg_idx)) {
 80018da:	6a78      	ldr	r0, [r7, #36]	; 0x24
 80018dc:	607b      	str	r3, [r7, #4]
 80018de:	f005 fb1c 	bl	8006f1a <is_ptr>
 80018e2:	687b      	ldr	r3, [r7, #4]
 80018e4:	2800      	cmp	r0, #0
 80018e6:	f47f af6d 	bne.w	80017c4 <cbprintf_package_convert+0x1e4>
			if (flags & CBPRINTF_PACKAGE_CONVERT_RO_STR) {
 80018ea:	f01b 0f01 	tst.w	fp, #1
 80018ee:	d009      	beq.n	8001904 <cbprintf_package_convert+0x324>
				cpy_str_pos[scpy_cnt++] = arg_pos;
 80018f0:	f106 0228 	add.w	r2, r6, #40	; 0x28
 80018f4:	f107 0030 	add.w	r0, r7, #48	; 0x30
 80018f8:	1c71      	adds	r1, r6, #1
 80018fa:	1816      	adds	r6, r2, r0
 80018fc:	f806 5c20 	strb.w	r5, [r6, #-32]
 8001900:	b2ce      	uxtb	r6, r1
 8001902:	e75f      	b.n	80017c4 <cbprintf_package_convert+0x1e4>
			} else if (flags & CBPRINTF_PACKAGE_CONVERT_KEEP_RO_STR) {
 8001904:	f01b 0f04 	tst.w	fp, #4
 8001908:	f43f af5c 	beq.w	80017c4 <cbprintf_package_convert+0x1e4>
				keep_str_pos[keep_cnt++] = arg_pos;
 800190c:	f108 0228 	add.w	r2, r8, #40	; 0x28
 8001910:	f107 0030 	add.w	r0, r7, #48	; 0x30
 8001914:	f108 0101 	add.w	r1, r8, #1
 8001918:	eb02 0800 	add.w	r8, r2, r0
 800191c:	f808 5c10 	strb.w	r5, [r8, #-16]
 8001920:	fa5f f881 	uxtb.w	r8, r1
 8001924:	e74e      	b.n	80017c4 <cbprintf_package_convert+0x1e4>
	out_desc.ro_str_cnt = (flags & CBPRINTF_PACKAGE_CONVERT_RO_STR) ? 0 :
 8001926:	2000      	movs	r0, #0
 8001928:	e763      	b.n	80017f2 <cbprintf_package_convert+0x212>
 800192a:	bf00      	nop
 800192c:	0800847c 	.word	0x0800847c
 8001930:	0800a8f8 	.word	0x0800a8f8
 8001934:	08009f74 	.word	0x08009f74
 8001938:	01000004 	.word	0x01000004
 800193c:	08008cb4 	.word	0x08008cb4
		uint8_t loc = cpy_str_pos[i];
 8001940:	f81b 300a 	ldrb.w	r3, [fp, sl]
		const char *str = *(const char **)&buf32[loc];
 8001944:	f854 9023 	ldr.w	r9, [r4, r3, lsl #2]
		uint8_t loc = cpy_str_pos[i];
 8001948:	f887 3037 	strb.w	r3, [r7, #55]	; 0x37
		uint16_t str_len = (strl && (i < strl_len)) ? strl[i] : 0;
 800194c:	f8d7 3084 	ldr.w	r3, [r7, #132]	; 0x84
 8001950:	b32b      	cbz	r3, 800199e <cbprintf_package_convert+0x3be>
 8001952:	f8d7 3088 	ldr.w	r3, [r7, #136]	; 0x88
 8001956:	459b      	cmp	fp, r3
 8001958:	d221      	bcs.n	800199e <cbprintf_package_convert+0x3be>
 800195a:	f8d7 3084 	ldr.w	r3, [r7, #132]	; 0x84
 800195e:	f833 801b 	ldrh.w	r8, [r3, fp, lsl #1]
		rv = cb(&loc, 1, ctx);
 8001962:	6a3a      	ldr	r2, [r7, #32]
 8001964:	2101      	movs	r1, #1
 8001966:	f107 0037 	add.w	r0, r7, #55	; 0x37
 800196a:	6afb      	ldr	r3, [r7, #44]	; 0x2c
 800196c:	4798      	blx	r3
		if (rv < 0) {
 800196e:	2800      	cmp	r0, #0
 8001970:	db1a      	blt.n	80019a8 <cbprintf_package_convert+0x3c8>
		out_len += rv;
 8001972:	4405      	add	r5, r0
	strl = strl > 0 ? strl : strlen(str) + 1;
 8001974:	f1b8 0f00 	cmp.w	r8, #0
 8001978:	d106      	bne.n	8001988 <cbprintf_package_convert+0x3a8>
 800197a:	4648      	mov	r0, r9
 800197c:	f7fe fcc0 	bl	8000300 <strlen>
 8001980:	f100 0801 	add.w	r8, r0, #1
 8001984:	fa1f f888 	uxth.w	r8, r8
	return cb(str, strl, ctx);
 8001988:	6a3a      	ldr	r2, [r7, #32]
 800198a:	4641      	mov	r1, r8
 800198c:	4648      	mov	r0, r9
 800198e:	6afb      	ldr	r3, [r7, #44]	; 0x2c
 8001990:	4798      	blx	r3
		if (rv < 0) {
 8001992:	2800      	cmp	r0, #0
 8001994:	db08      	blt.n	80019a8 <cbprintf_package_convert+0x3c8>
		out_len += rv;
 8001996:	4405      	add	r5, r0
	for (unsigned int i = 0; i < scpy_cnt; i++) {
 8001998:	f10b 0b01 	add.w	fp, fp, #1
 800199c:	e75b      	b.n	8001856 <cbprintf_package_convert+0x276>
		uint16_t str_len = (strl && (i < strl_len)) ? strl[i] : 0;
 800199e:	f04f 0800 	mov.w	r8, #0
 80019a2:	e7de      	b.n	8001962 <cbprintf_package_convert+0x382>
 80019a4:	4645      	mov	r5, r8
 80019a6:	e645      	b.n	8001634 <cbprintf_package_convert+0x54>
 80019a8:	4605      	mov	r5, r0
 80019aa:	e643      	b.n	8001634 <cbprintf_package_convert+0x54>

080019ac <z_thread_entry>:
 * This routine does not return, and is marked as such so the compiler won't
 * generate preamble code that is only used by functions that actually return.
 */
FUNC_NORETURN void z_thread_entry(k_thread_entry_t entry,
				 void *p1, void *p2, void *p3)
{
 80019ac:	b580      	push	{r7, lr}
 80019ae:	4605      	mov	r5, r0
 80019b0:	460e      	mov	r6, r1
 80019b2:	4617      	mov	r7, r2
 80019b4:	4698      	mov	r8, r3
	if (z_syscall_trap()) {
		return (k_tid_t) arch_syscall_invoke0(K_SYSCALL_K_SCHED_CURRENT_THREAD_QUERY);
	}
#endif
	compiler_barrier();
	return z_impl_k_sched_current_thread_query();
 80019b6:	f003 fcb9 	bl	800532c <z_impl_k_sched_current_thread_query>
#ifdef CONFIG_CURRENT_THREAD_USE_TLS
	z_tls_current = k_sched_current_thread_query();
 80019ba:	f8df 9020 	ldr.w	r9, [pc, #32]	; 80019dc <z_thread_entry+0x30>
 80019be:	4603      	mov	r3, r0
 80019c0:	f006 fd52 	bl	8008468 <__aeabi_read_tp>
 80019c4:	4604      	mov	r4, r0

	sys_rand_get((uint8_t *)&stack_guard, sizeof(stack_guard));
	__stack_chk_guard = stack_guard;
	__stack_chk_guard <<= 8;
#endif	/* CONFIG_STACK_CANARIES */
	entry(p1, p2, p3);
 80019c6:	4642      	mov	r2, r8
	z_tls_current = k_sched_current_thread_query();
 80019c8:	f849 3000 	str.w	r3, [r9, r0]
	entry(p1, p2, p3);
 80019cc:	4639      	mov	r1, r7
 80019ce:	4630      	mov	r0, r6
 80019d0:	47a8      	blx	r5
#ifdef CONFIG_CURRENT_THREAD_USE_TLS

	/* Thread-local cache of current thread ID, set in z_thread_entry() */
	extern Z_THREAD_LOCAL k_tid_t z_tls_current;

	return z_tls_current;
 80019d2:	f854 0009 	ldr.w	r0, [r4, r9]
		(void) arch_syscall_invoke1(parm0.x, K_SYSCALL_K_THREAD_ABORT);
		return;
	}
#endif
	compiler_barrier();
	z_impl_k_thread_abort(thread);
 80019d6:	f001 f947 	bl	8002c68 <z_impl_k_thread_abort>
	/*
	 * Compiler can't tell that k_thread_abort() won't return and issues a
	 * warning unless we tell it that control never gets this far.
	 */

	CODE_UNREACHABLE; /* LCOV_EXCL_LINE */
 80019da:	bf00      	nop
 80019dc:	00000008 	.word	0x00000008

080019e0 <st_stm32_common_config>:
	 * RTT feature is working with realtime update only when
	 *   - one of the DMA is clocked.
	 * See https://github.com/zephyrproject-rtos/zephyr/issues/34324
	 */
#if defined(__HAL_RCC_DMA1_CLK_ENABLE)
	__HAL_RCC_DMA1_CLK_ENABLE();
 80019e0:	4b0c      	ldr	r3, [pc, #48]	; (8001a14 <st_stm32_common_config+0x34>)
{
 80019e2:	b082      	sub	sp, #8
#elif defined(LL_APB2_GRP1_PERIPH_DBGMCU)
	LL_APB2_GRP1_DisableClock(LL_APB2_GRP1_PERIPH_DBGMCU);
#endif /* LL_APB1_GRP1_PERIPH_DBGMCU */

	return 0;
}
 80019e4:	2000      	movs	r0, #0
	__HAL_RCC_DMA1_CLK_ENABLE();
 80019e6:	f8d3 20d8 	ldr.w	r2, [r3, #216]	; 0xd8
 80019ea:	f042 0201 	orr.w	r2, r2, #1
 80019ee:	f8c3 20d8 	str.w	r2, [r3, #216]	; 0xd8
 80019f2:	f8d3 30d8 	ldr.w	r3, [r3, #216]	; 0xd8
 80019f6:	f003 0301 	and.w	r3, r3, #1
 80019fa:	9301      	str	r3, [sp, #4]
 80019fc:	9b01      	ldr	r3, [sp, #4]
  * @rmtoll DBGMCU_CR    DBGSTOP_D1/DBGSLEEP_CD     LL_DBGMCU_EnableD1DebugInStopMode
  * @retval None
  */
__STATIC_INLINE void LL_DBGMCU_EnableD1DebugInStopMode(void)
{
  SET_BIT(DBGMCU->CR, DBGMCU_CR_DBG_STOPD1);
 80019fe:	4b06      	ldr	r3, [pc, #24]	; (8001a18 <st_stm32_common_config+0x38>)
 8001a00:	685a      	ldr	r2, [r3, #4]
 8001a02:	f042 0202 	orr.w	r2, r2, #2
 8001a06:	605a      	str	r2, [r3, #4]
  SET_BIT(DBGMCU->CR, DBGMCU_CR_DBG_SLEEPD1);
 8001a08:	685a      	ldr	r2, [r3, #4]
 8001a0a:	f042 0201 	orr.w	r2, r2, #1
 8001a0e:	605a      	str	r2, [r3, #4]
}
 8001a10:	b002      	add	sp, #8
 8001a12:	4770      	bx	lr
 8001a14:	58024400 	.word	0x58024400
 8001a18:	5c001000 	.word	0x5c001000

08001a1c <soc_early_init_hook>:
	sys_cache_instr_enable();
	sys_cache_data_enable();

	/* Update CMSIS SystemCoreClock variable (HCLK) */
	/* At reset, system core clock is set to 64 MHz from HSI */
	SystemCoreClock = 64000000;
 8001a1c:	4b0f      	ldr	r3, [pc, #60]	; (8001a5c <soc_early_init_hook+0x40>)
 8001a1e:	4a10      	ldr	r2, [pc, #64]	; (8001a60 <soc_early_init_hook+0x44>)
 8001a20:	601a      	str	r2, [r3, #0]
  * @retval None
  */
__STATIC_INLINE void LL_PWR_ConfigSupply(uint32_t SupplySource)
{
  /* Set the power supply configuration */
  MODIFY_REG(PWR->CR3, (PWR_CR3_SCUEN | PWR_CR3_LDOEN | PWR_CR3_BYPASS), SupplySource);
 8001a22:	4b10      	ldr	r3, [pc, #64]	; (8001a64 <soc_early_init_hook+0x48>)
 8001a24:	68da      	ldr	r2, [r3, #12]
 8001a26:	f022 0207 	bic.w	r2, r2, #7
 8001a2a:	f042 0202 	orr.w	r2, r2, #2
 8001a2e:	60da      	str	r2, [r3, #12]
  * @retval None
  */
__STATIC_INLINE void LL_PWR_SetRegulVoltageScaling(uint32_t VoltageScaling)
{
#if defined (PWR_CPUCR_PDDS_D2)
  MODIFY_REG(PWR->D3CR, PWR_D3CR_VOS, VoltageScaling);
 8001a30:	699a      	ldr	r2, [r3, #24]
 8001a32:	f442 4240 	orr.w	r2, r2, #49152	; 0xc000
 8001a36:	619a      	str	r2, [r3, #24]
  * @retval State of bit (1 or 0).
  */
__STATIC_INLINE uint32_t LL_PWR_IsActiveFlag_VOS(void)
{
#if defined (PWR_CPUCR_PDDS_D2)
  return ((READ_BIT(PWR->D3CR, PWR_D3CR_VOSRDY) == (PWR_D3CR_VOSRDY)) ? 1UL : 0UL);
 8001a38:	699a      	ldr	r2, [r3, #24]
 8001a3a:	0492      	lsls	r2, r2, #18
 8001a3c:	d5fc      	bpl.n	8001a38 <soc_early_init_hook+0x1c>
  return (uint32_t)(READ_BIT(DBGMCU->IDCODE, DBGMCU_IDCODE_REV_ID) >> DBGMCU_IDCODE_REV_ID_Pos);
 8001a3e:	4b0a      	ldr	r3, [pc, #40]	; (8001a68 <soc_early_init_hook+0x4c>)
 8001a40:	681a      	ldr	r2, [r3, #0]
	 * 2.2.9: Reading from AXI SRAM may lead to data read corruption
	 * Workaround: Set the READ_ISS_OVERRIDE bit in the AXI_TARG7_FN_MOD
	 * register.
	 * Applicable only to RevY (REV_ID 0x1003)
	 */
	if (LL_DBGMCU_GetRevisionID() == 0x1003) {
 8001a42:	f241 0303 	movw	r3, #4099	; 0x1003
 8001a46:	ebb3 4f12 	cmp.w	r3, r2, lsr #16
 8001a4a:	d106      	bne.n	8001a5a <soc_early_init_hook+0x3e>
		MODIFY_REG(GPV->AXI_TARG7_FN_MOD, 0x1, 0x1);
 8001a4c:	4a07      	ldr	r2, [pc, #28]	; (8001a6c <soc_early_init_hook+0x50>)
 8001a4e:	f8d2 3108 	ldr.w	r3, [r2, #264]	; 0x108
 8001a52:	f043 0301 	orr.w	r3, r3, #1
 8001a56:	f8c2 3108 	str.w	r3, [r2, #264]	; 0x108
	}
}
 8001a5a:	4770      	bx	lr
 8001a5c:	24000588 	.word	0x24000588
 8001a60:	03d09000 	.word	0x03d09000
 8001a64:	58024800 	.word	0x58024800
 8001a68:	5c001000 	.word	0x5c001000
 8001a6c:	51008000 	.word	0x51008000

08001a70 <activate_foreach_backend>:
		z_log_runtime_filters_init();
	}
}

static uint32_t activate_foreach_backend(uint32_t mask)
{
 8001a70:	e92d 47f0 	stmdb	sp!, {r4, r5, r6, r7, r8, r9, sl, lr}
 8001a74:	4604      	mov	r4, r0
	uint32_t mask_cpy = mask;

	while (mask_cpy) {
 8001a76:	4607      	mov	r7, r0
		uint32_t i = __builtin_ctz(mask_cpy);
		const struct log_backend *backend = log_backend_get(i);

		mask_cpy &= ~BIT(i);
 8001a78:	f04f 0901 	mov.w	r9, #1
		if (backend->autostart && (log_backend_is_ready(backend) == 0)) {
 8001a7c:	f8df 8050 	ldr.w	r8, [pc, #80]	; 8001ad0 <activate_foreach_backend+0x60>
	while (mask_cpy) {
 8001a80:	b914      	cbnz	r4, 8001a88 <activate_foreach_backend+0x18>
					   CONFIG_LOG_MAX_LEVEL);
		}
	}

	return mask;
}
 8001a82:	4638      	mov	r0, r7
 8001a84:	e8bd 87f0 	ldmia.w	sp!, {r4, r5, r6, r7, r8, r9, sl, pc}
		uint32_t i = __builtin_ctz(mask_cpy);
 8001a88:	fa94 f5a4 	rbit	r5, r4
 8001a8c:	fab5 f585 	clz	r5, r5
		mask_cpy &= ~BIT(i);
 8001a90:	fa09 f305 	lsl.w	r3, r9, r5
		if (backend->autostart && (log_backend_is_ready(backend) == 0)) {
 8001a94:	012e      	lsls	r6, r5, #4
 8001a96:	eb08 1505 	add.w	r5, r8, r5, lsl #4
		mask_cpy &= ~BIT(i);
 8001a9a:	ea6f 0a03 	mvn.w	sl, r3
 8001a9e:	ea24 0403 	bic.w	r4, r4, r3
		if (backend->autostart && (log_backend_is_ready(backend) == 0)) {
 8001aa2:	7b2b      	ldrb	r3, [r5, #12]
 8001aa4:	2b00      	cmp	r3, #0
 8001aa6:	d0eb      	beq.n	8001a80 <activate_foreach_backend+0x10>
 * @retval -EBUSY if backend is not yet ready.
 */
static inline int log_backend_is_ready(const struct log_backend *const backend)
{
	__ASSERT_NO_MSG(backend != NULL);
	if (backend->api->is_ready != NULL) {
 8001aa8:	f858 3006 	ldr.w	r3, [r8, r6]
 8001aac:	691b      	ldr	r3, [r3, #16]
 8001aae:	b94b      	cbnz	r3, 8001ac4 <activate_foreach_backend+0x54>
					   backend->cb->ctx,
 8001ab0:	4446      	add	r6, r8
			log_backend_enable(backend,
 8001ab2:	2204      	movs	r2, #4
 8001ab4:	4628      	mov	r0, r5
			mask &= ~BIT(i);
 8001ab6:	ea07 070a 	and.w	r7, r7, sl
			log_backend_enable(backend,
 8001aba:	6873      	ldr	r3, [r6, #4]
 8001abc:	6819      	ldr	r1, [r3, #0]
 8001abe:	f005 fd02 	bl	80074c6 <log_backend_enable>
 8001ac2:	e7dd      	b.n	8001a80 <activate_foreach_backend+0x10>
		return backend->api->is_ready(backend);
 8001ac4:	4628      	mov	r0, r5
 8001ac6:	4798      	blx	r3
		if (backend->autostart && (log_backend_is_ready(backend) == 0)) {
 8001ac8:	2800      	cmp	r0, #0
 8001aca:	d1d9      	bne.n	8001a80 <activate_foreach_backend+0x10>
 8001acc:	e7f0      	b.n	8001ab0 <activate_foreach_backend+0x40>
 8001ace:	bf00      	nop
 8001ad0:	08008d14 	.word	0x08008d14

08001ad4 <enable_logger>:

K_KERNEL_STACK_DEFINE(logging_stack, CONFIG_LOG_PROCESS_THREAD_STACK_SIZE);
struct k_thread logging_thread;

static int enable_logger(void)
{
 8001ad4:	b530      	push	{r4, r5, lr}
	if (IS_ENABLED(CONFIG_LOG_PROCESS_THREAD)) {
		k_timer_init(&log_process_thread_timer,
 8001ad6:	2200      	movs	r2, #0
{
 8001ad8:	b089      	sub	sp, #36	; 0x24
		k_timer_init(&log_process_thread_timer,
 8001ada:	490f      	ldr	r1, [pc, #60]	; (8001b18 <enable_logger+0x44>)
 8001adc:	480f      	ldr	r0, [pc, #60]	; (8001b1c <enable_logger+0x48>)
 8001ade:	f006 faba 	bl	8008056 <k_timer_init>
	return z_impl_k_thread_create(new_thread, stack, stack_size, entry, p1, p2, p3, prio, options, delay);
 8001ae2:	2200      	movs	r2, #0
 8001ae4:	2300      	movs	r3, #0
 8001ae6:	2400      	movs	r4, #0
 8001ae8:	4d0d      	ldr	r5, [pc, #52]	; (8001b20 <enable_logger+0x4c>)
 8001aea:	490e      	ldr	r1, [pc, #56]	; (8001b24 <enable_logger+0x50>)
 8001aec:	4628      	mov	r0, r5
 8001aee:	9400      	str	r4, [sp, #0]
 8001af0:	e9cd 2306 	strd	r2, r3, [sp, #24]
 8001af4:	230e      	movs	r3, #14
 8001af6:	f44f 7240 	mov.w	r2, #768	; 0x300
 8001afa:	e9cd 3403 	strd	r3, r4, [sp, #12]
 8001afe:	e9cd 4401 	strd	r4, r4, [sp, #4]
 8001b02:	4b09      	ldr	r3, [pc, #36]	; (8001b28 <enable_logger+0x54>)
 8001b04:	f003 f9c4 	bl	8004e90 <z_impl_k_thread_create>
		union { uintptr_t x; const char * val; } parm1 = { .val = str };
		return (int) arch_syscall_invoke2(parm0.x, parm1.x, K_SYSCALL_K_THREAD_NAME_SET);
	}
#endif
	compiler_barrier();
	return z_impl_k_thread_name_set(thread, str);
 8001b08:	4908      	ldr	r1, [pc, #32]	; (8001b2c <enable_logger+0x58>)
 8001b0a:	4628      	mov	r0, r5
 8001b0c:	f006 f9b4 	bl	8007e78 <z_impl_k_thread_name_set>
	} else {
		(void)z_log_init(false, false);
	}

	return 0;
}
 8001b10:	4620      	mov	r0, r4
 8001b12:	b009      	add	sp, #36	; 0x24
 8001b14:	bd30      	pop	{r4, r5, pc}
 8001b16:	bf00      	nop
 8001b18:	08001b31 	.word	0x08001b31
 8001b1c:	24000af8 	.word	0x24000af8
 8001b20:	24000630 	.word	0x24000630
 8001b24:	24001080 	.word	0x24001080
 8001b28:	08001e41 	.word	0x08001e41
 8001b2c:	0800a03a 	.word	0x0800a03a

08001b30 <log_process_thread_timer_expiry_fn>:
		(void) arch_syscall_invoke1(parm0.x, K_SYSCALL_K_SEM_GIVE);
		return;
	}
#endif
	compiler_barrier();
	z_impl_k_sem_give(sem);
 8001b30:	4801      	ldr	r0, [pc, #4]	; (8001b38 <log_process_thread_timer_expiry_fn+0x8>)
 8001b32:	f003 b905 	b.w	8004d40 <z_impl_k_sem_give>
 8001b36:	bf00      	nop
 8001b38:	24000620 	.word	0x24000620

08001b3c <z_log_init>:
{
 8001b3c:	e92d 4ff8 	stmdb	sp!, {r3, r4, r5, r6, r7, r8, r9, sl, fp, lr}
 8001b40:	4680      	mov	r8, r0
	if (atomic_inc(&initialized) != 0) {
 8001b42:	4824      	ldr	r0, [pc, #144]	; (8001bd4 <z_log_init+0x98>)
{
 8001b44:	460f      	mov	r7, r1
	if (atomic_inc(&initialized) != 0) {
 8001b46:	f005 fc96 	bl	8007476 <atomic_inc>
 8001b4a:	4606      	mov	r6, r0
 8001b4c:	2800      	cmp	r0, #0
 8001b4e:	d038      	beq.n	8001bc2 <z_log_init+0x86>
	uint32_t mask = 0;
 8001b50:	2500      	movs	r5, #0
}
 8001b52:	4628      	mov	r0, r5
 8001b54:	e8bd 8ff8 	ldmia.w	sp!, {r3, r4, r5, r6, r7, r8, r9, sl, fp, pc}
		id += backend - log_backend_get(0);
 8001b58:	eba4 030b 	sub.w	r3, r4, fp
 */
static inline void log_backend_id_set(const struct log_backend *const backend,
				      uint8_t id)
{
	__ASSERT_NO_MSG(backend != NULL);
	backend->cb->id = id;
 8001b5c:	6862      	ldr	r2, [r4, #4]
 8001b5e:	111b      	asrs	r3, r3, #4
 8001b60:	3301      	adds	r3, #1
		log_backend_id_set(backend, id);
 8001b62:	7113      	strb	r3, [r2, #4]
		if (backend->autostart) {
 8001b64:	7b23      	ldrb	r3, [r4, #12]
 8001b66:	b183      	cbz	r3, 8001b8a <z_log_init+0x4e>
	if (backend->api->init) {
 8001b68:	6823      	ldr	r3, [r4, #0]
 8001b6a:	68db      	ldr	r3, [r3, #12]
 8001b6c:	b10b      	cbz	r3, 8001b72 <z_log_init+0x36>
		backend->api->init(backend);
 8001b6e:	4620      	mov	r0, r4
 8001b70:	4798      	blx	r3
	backend->cb->initialized = true;
 8001b72:	6863      	ldr	r3, [r4, #4]
 8001b74:	f883 9006 	strb.w	r9, [r3, #6]
	if (backend->api->is_ready != NULL) {
 8001b78:	6823      	ldr	r3, [r4, #0]
 8001b7a:	691b      	ldr	r3, [r3, #16]
 8001b7c:	b9cb      	cbnz	r3, 8001bb2 <z_log_init+0x76>
				log_backend_enable(backend,
 8001b7e:	6863      	ldr	r3, [r4, #4]
 8001b80:	2204      	movs	r2, #4
 8001b82:	4620      	mov	r0, r4
 8001b84:	6819      	ldr	r1, [r3, #0]
 8001b86:	f005 fc9e 	bl	80074c6 <log_backend_enable>
		++backend_index;
 8001b8a:	3601      	adds	r6, #1
	STRUCT_SECTION_FOREACH(log_backend, backend) {
 8001b8c:	3410      	adds	r4, #16
 8001b8e:	4554      	cmp	r4, sl
 8001b90:	d3e2      	bcc.n	8001b58 <z_log_init+0x1c>
	if (blocking) {
 8001b92:	f1b8 0f00 	cmp.w	r8, #0
 8001b96:	d0dc      	beq.n	8001b52 <z_log_init+0x16>
		while (mask) {
 8001b98:	2d00      	cmp	r5, #0
 8001b9a:	d0d9      	beq.n	8001b50 <z_log_init+0x14>
			mask = activate_foreach_backend(mask);
 8001b9c:	4628      	mov	r0, r5
 8001b9e:	f7ff ff67 	bl	8001a70 <activate_foreach_backend>
 8001ba2:	4605      	mov	r5, r0
			if (IS_ENABLED(CONFIG_MULTITHREADING) && can_sleep) {
 8001ba4:	2f00      	cmp	r7, #0
 8001ba6:	d0f7      	beq.n	8001b98 <z_log_init+0x5c>
	return z_impl_k_sleep(timeout);
 8001ba8:	2100      	movs	r1, #0
 8001baa:	2064      	movs	r0, #100	; 0x64
 8001bac:	f006 f9fa 	bl	8007fa4 <z_impl_k_sleep>
	return k_sleep(Z_TIMEOUT_MS(ms));
 8001bb0:	e7f2      	b.n	8001b98 <z_log_init+0x5c>
		return backend->api->is_ready(backend);
 8001bb2:	4620      	mov	r0, r4
 8001bb4:	4798      	blx	r3
			if (log_backend_is_ready(backend) == 0) {
 8001bb6:	2800      	cmp	r0, #0
 8001bb8:	d0e1      	beq.n	8001b7e <z_log_init+0x42>
				mask |= BIT(backend_index);
 8001bba:	fa09 f306 	lsl.w	r3, r9, r6
 8001bbe:	431d      	orrs	r5, r3
 8001bc0:	e7e3      	b.n	8001b8a <z_log_init+0x4e>
	STRUCT_SECTION_FOREACH(log_backend, backend) {
 8001bc2:	4c05      	ldr	r4, [pc, #20]	; (8001bd8 <z_log_init+0x9c>)
	uint32_t mask = 0;
 8001bc4:	4605      	mov	r5, r0
	STRUCT_SECTION_FOREACH(log_backend, backend) {
 8001bc6:	f8df a014 	ldr.w	sl, [pc, #20]	; 8001bdc <z_log_init+0xa0>
	backend->cb->initialized = true;
 8001bca:	f04f 0901 	mov.w	r9, #1
 8001bce:	46a3      	mov	fp, r4
 8001bd0:	e7dd      	b.n	8001b8e <z_log_init+0x52>
 8001bd2:	bf00      	nop
 8001bd4:	24000e48 	.word	0x24000e48
 8001bd8:	08008d14 	.word	0x08008d14
 8001bdc:	08008d24 	.word	0x08008d24

08001be0 <log_format_func_t_get>:
}
 8001be0:	4b01      	ldr	r3, [pc, #4]	; (8001be8 <log_format_func_t_get+0x8>)
 8001be2:	f853 0020 	ldr.w	r0, [r3, r0, lsl #2]
 8001be6:	4770      	bx	lr
 8001be8:	08009254 	.word	0x08009254

08001bec <log_set_timestamp_func>:
{
 8001bec:	b508      	push	{r3, lr}
 8001bee:	4603      	mov	r3, r0
 8001bf0:	4608      	mov	r0, r1
	if (timestamp_getter == NULL) {
 8001bf2:	b12b      	cbz	r3, 8001c00 <log_set_timestamp_func+0x14>
	timestamp_func = timestamp_getter;
 8001bf4:	4a04      	ldr	r2, [pc, #16]	; (8001c08 <log_set_timestamp_func+0x1c>)
 8001bf6:	6013      	str	r3, [r2, #0]
		log_output_timestamp_freq_set(freq);
 8001bf8:	f000 fc68 	bl	80024cc <log_output_timestamp_freq_set>
	return 0;
 8001bfc:	2000      	movs	r0, #0
}
 8001bfe:	bd08      	pop	{r3, pc}
		return -EINVAL;
 8001c00:	f06f 0015 	mvn.w	r0, #21
 8001c04:	e7fb      	b.n	8001bfe <log_set_timestamp_func+0x12>
 8001c06:	bf00      	nop
 8001c08:	24000570 	.word	0x24000570

08001c0c <z_log_notify_backend_enabled>:
{
 8001c0c:	b510      	push	{r4, lr}
	if (IS_ENABLED(CONFIG_LOG_PROCESS_THREAD) && !backend_attached) {
 8001c0e:	4c04      	ldr	r4, [pc, #16]	; (8001c20 <z_log_notify_backend_enabled+0x14>)
 8001c10:	7823      	ldrb	r3, [r4, #0]
 8001c12:	b913      	cbnz	r3, 8001c1a <z_log_notify_backend_enabled+0xe>
	z_impl_k_sem_give(sem);
 8001c14:	4803      	ldr	r0, [pc, #12]	; (8001c24 <z_log_notify_backend_enabled+0x18>)
 8001c16:	f003 f893 	bl	8004d40 <z_impl_k_sem_give>
	backend_attached = true;
 8001c1a:	2301      	movs	r3, #1
 8001c1c:	7023      	strb	r3, [r4, #0]
}
 8001c1e:	bd10      	pop	{r4, pc}
 8001c20:	24001024 	.word	0x24001024
 8001c24:	24000620 	.word	0x24000620

08001c28 <z_log_dropped>:
{
 8001c28:	b510      	push	{r4, lr}
 8001c2a:	4604      	mov	r4, r0
	atomic_inc(&dropped_cnt);
 8001c2c:	480b      	ldr	r0, [pc, #44]	; (8001c5c <z_log_dropped+0x34>)
 8001c2e:	f005 fc22 	bl	8007476 <atomic_inc>
	if (buffered) {
 8001c32:	b15c      	cbz	r4, 8001c4c <z_log_dropped+0x24>
	return __atomic_fetch_add(target, value, __ATOMIC_SEQ_CST);
}

static inline atomic_val_t atomic_sub(atomic_t *target, atomic_val_t value)
{
	return __atomic_fetch_sub(target, value, __ATOMIC_SEQ_CST);
 8001c34:	4b0a      	ldr	r3, [pc, #40]	; (8001c60 <z_log_dropped+0x38>)
 8001c36:	f3bf 8f5b 	dmb	ish
 8001c3a:	e853 1f00 	ldrex	r1, [r3]
 8001c3e:	3901      	subs	r1, #1
 8001c40:	e843 1200 	strex	r2, r1, [r3]
 8001c44:	2a00      	cmp	r2, #0
 8001c46:	d1f8      	bne.n	8001c3a <z_log_dropped+0x12>
 8001c48:	f3bf 8f5b 	dmb	ish
	z_impl_k_timer_stop(timer);
 8001c4c:	4805      	ldr	r0, [pc, #20]	; (8001c64 <z_log_dropped+0x3c>)
 8001c4e:	f006 fa0e 	bl	800806e <z_impl_k_timer_stop>
	z_impl_k_sem_give(sem);
 8001c52:	4805      	ldr	r0, [pc, #20]	; (8001c68 <z_log_dropped+0x40>)
}
 8001c54:	e8bd 4010 	ldmia.w	sp!, {r4, lr}
 8001c58:	f003 b872 	b.w	8004d40 <z_impl_k_sem_give>
 8001c5c:	24000e40 	.word	0x24000e40
 8001c60:	24000e44 	.word	0x24000e44
 8001c64:	24000af8 	.word	0x24000af8
 8001c68:	24000620 	.word	0x24000620

08001c6c <z_log_dropped_read_and_clear>:
}
 8001c6c:	2000      	movs	r0, #0
{
	/* This builtin, as described by Intel, is not a traditional
	 * test-and-set operation, but rather an atomic exchange operation. It
	 * writes value into *ptr, and returns the previous contents of *ptr.
	 */
	return __atomic_exchange_n(target, value, __ATOMIC_SEQ_CST);
 8001c6e:	4b06      	ldr	r3, [pc, #24]	; (8001c88 <z_log_dropped_read_and_clear+0x1c>)
 8001c70:	f3bf 8f5b 	dmb	ish
 8001c74:	4601      	mov	r1, r0
 8001c76:	e853 0f00 	ldrex	r0, [r3]
 8001c7a:	e843 1200 	strex	r2, r1, [r3]
 8001c7e:	2a00      	cmp	r2, #0
 8001c80:	d1f9      	bne.n	8001c76 <z_log_dropped_read_and_clear+0xa>
 8001c82:	f3bf 8f5b 	dmb	ish
 8001c86:	4770      	bx	lr
 8001c88:	24000e40 	.word	0x24000e40

08001c8c <dropped_notify>:
{
 8001c8c:	b570      	push	{r4, r5, r6, lr}
	uint32_t dropped = z_log_dropped_read_and_clear();
 8001c8e:	f7ff ffed 	bl	8001c6c <z_log_dropped_read_and_clear>
	STRUCT_SECTION_FOREACH(log_backend, backend) {
 8001c92:	4c08      	ldr	r4, [pc, #32]	; (8001cb4 <dropped_notify+0x28>)
	uint32_t dropped = z_log_dropped_read_and_clear();
 8001c94:	4605      	mov	r5, r0
	STRUCT_SECTION_FOREACH(log_backend, backend) {
 8001c96:	4e08      	ldr	r6, [pc, #32]	; (8001cb8 <dropped_notify+0x2c>)
 8001c98:	42b4      	cmp	r4, r6
 8001c9a:	d300      	bcc.n	8001c9e <dropped_notify+0x12>
}
 8001c9c:	bd70      	pop	{r4, r5, r6, pc}
 */
static inline bool log_backend_is_active(
				const struct log_backend *const backend)
{
	__ASSERT_NO_MSG(backend != NULL);
	return backend->cb->active;
 8001c9e:	6863      	ldr	r3, [r4, #4]
		if (log_backend_is_active(backend)) {
 8001ca0:	795b      	ldrb	r3, [r3, #5]
 8001ca2:	b12b      	cbz	r3, 8001cb0 <dropped_notify+0x24>
	if (backend->api->dropped != NULL) {
 8001ca4:	6823      	ldr	r3, [r4, #0]
 8001ca6:	685b      	ldr	r3, [r3, #4]
 8001ca8:	b113      	cbz	r3, 8001cb0 <dropped_notify+0x24>
		backend->api->dropped(backend, cnt);
 8001caa:	4629      	mov	r1, r5
 8001cac:	4620      	mov	r0, r4
 8001cae:	4798      	blx	r3
	STRUCT_SECTION_FOREACH(log_backend, backend) {
 8001cb0:	3410      	adds	r4, #16
 8001cb2:	e7f1      	b.n	8001c98 <dropped_notify+0xc>
 8001cb4:	08008d14 	.word	0x08008d14
 8001cb8:	08008d24 	.word	0x08008d24

08001cbc <z_log_msg_init>:
{
 8001cbc:	b510      	push	{r4, lr}
	mpsc_pbuf_init(&log_buffer, &mpsc_config);
 8001cbe:	4c04      	ldr	r4, [pc, #16]	; (8001cd0 <z_log_msg_init+0x14>)
 8001cc0:	4904      	ldr	r1, [pc, #16]	; (8001cd4 <z_log_msg_init+0x18>)
 8001cc2:	4620      	mov	r0, r4
 8001cc4:	f005 fa5d 	bl	8007182 <mpsc_pbuf_init>
	curr_log_buffer = &log_buffer;
 8001cc8:	4b03      	ldr	r3, [pc, #12]	; (8001cd8 <z_log_msg_init+0x1c>)
 8001cca:	601c      	str	r4, [r3, #0]
}
 8001ccc:	bd10      	pop	{r4, pc}
 8001cce:	bf00      	nop
 8001cd0:	240005e4 	.word	0x240005e4
 8001cd4:	08009240 	.word	0x08009240
 8001cd8:	24000e38 	.word	0x24000e38

08001cdc <log_core_init>:
{
 8001cdc:	b508      	push	{r3, lr}
	panic_mode = false;
 8001cde:	4a08      	ldr	r2, [pc, #32]	; (8001d00 <log_core_init+0x24>)
 8001ce0:	2300      	movs	r3, #0
		log_set_timestamp_func(default_lf_get_timestamp, 1000U);
 8001ce2:	f44f 717a 	mov.w	r1, #1000	; 0x3e8
 8001ce6:	4807      	ldr	r0, [pc, #28]	; (8001d04 <log_core_init+0x28>)
	panic_mode = false;
 8001ce8:	7013      	strb	r3, [r2, #0]
	dropped_cnt = 0;
 8001cea:	4a07      	ldr	r2, [pc, #28]	; (8001d08 <log_core_init+0x2c>)
 8001cec:	6013      	str	r3, [r2, #0]
	buffered_cnt = 0;
 8001cee:	4a07      	ldr	r2, [pc, #28]	; (8001d0c <log_core_init+0x30>)
 8001cf0:	6013      	str	r3, [r2, #0]
		log_set_timestamp_func(default_lf_get_timestamp, 1000U);
 8001cf2:	f7ff ff7b 	bl	8001bec <log_set_timestamp_func>
}
 8001cf6:	e8bd 4008 	ldmia.w	sp!, {r3, lr}
		z_log_msg_init();
 8001cfa:	f7ff bfdf 	b.w	8001cbc <z_log_msg_init>
 8001cfe:	bf00      	nop
 8001d00:	24001025 	.word	0x24001025
 8001d04:	08007491 	.word	0x08007491
 8001d08:	24000e40 	.word	0x24000e40
 8001d0c:	24000e44 	.word	0x24000e44

08001d10 <z_log_msg_alloc>:
{
 8001d10:	4601      	mov	r1, r0
	return (struct log_msg *)mpsc_pbuf_alloc(
 8001d12:	2200      	movs	r2, #0
 8001d14:	2300      	movs	r3, #0
 8001d16:	4801      	ldr	r0, [pc, #4]	; (8001d1c <z_log_msg_alloc+0xc>)
 8001d18:	f005 ba54 	b.w	80071c4 <mpsc_pbuf_alloc>
 8001d1c:	240005e4 	.word	0x240005e4

08001d20 <z_log_msg_local_claim>:
	return (union log_msg_generic *)mpsc_pbuf_claim(&log_buffer);
 8001d20:	4801      	ldr	r0, [pc, #4]	; (8001d28 <z_log_msg_local_claim+0x8>)
 8001d22:	f005 baed 	b.w	8007300 <mpsc_pbuf_claim>
 8001d26:	bf00      	nop
 8001d28:	240005e4 	.word	0x240005e4

08001d2c <z_log_msg_free>:
	mpsc_pbuf_free(buffer, &msg->buf);
 8001d2c:	4b02      	ldr	r3, [pc, #8]	; (8001d38 <z_log_msg_free+0xc>)
{
 8001d2e:	4601      	mov	r1, r0
	mpsc_pbuf_free(buffer, &msg->buf);
 8001d30:	6818      	ldr	r0, [r3, #0]
 8001d32:	f005 bb39 	b.w	80073a8 <mpsc_pbuf_free>
 8001d36:	bf00      	nop
 8001d38:	24000e38 	.word	0x24000e38

08001d3c <z_log_msg_pending>:
	return mpsc_pbuf_is_pending(buffer);
 8001d3c:	4801      	ldr	r0, [pc, #4]	; (8001d44 <z_log_msg_pending+0x8>)
 8001d3e:	f005 bb6e 	b.w	800741e <mpsc_pbuf_is_pending>
 8001d42:	bf00      	nop
 8001d44:	240005e4 	.word	0x240005e4

08001d48 <z_impl_log_process>:
	if (!backend_attached) {
 8001d48:	4b26      	ldr	r3, [pc, #152]	; (8001de4 <z_impl_log_process+0x9c>)
{
 8001d4a:	b570      	push	{r4, r5, r6, lr}
	if (!backend_attached) {
 8001d4c:	7818      	ldrb	r0, [r3, #0]
 8001d4e:	2800      	cmp	r0, #0
 8001d50:	d046      	beq.n	8001de0 <z_impl_log_process+0x98>
	return z_log_msg_local_claim();
 8001d52:	f7ff ffe5 	bl	8001d20 <z_log_msg_local_claim>
	if (msg) {
 8001d56:	4605      	mov	r5, r0
 8001d58:	2800      	cmp	r0, #0
 8001d5a:	d13e      	bne.n	8001dda <z_impl_log_process+0x92>
	return dropped_cnt > 0;
 8001d5c:	4b22      	ldr	r3, [pc, #136]	; (8001de8 <z_impl_log_process+0xa0>)
 8001d5e:	4c23      	ldr	r4, [pc, #140]	; (8001dec <z_impl_log_process+0xa4>)
		if ((dropped_pend || unordered_pend) &&
 8001d60:	681b      	ldr	r3, [r3, #0]
 8001d62:	2b00      	cmp	r3, #0
 8001d64:	dd12      	ble.n	8001d8c <z_impl_log_process+0x44>
	return z_impl_k_uptime_ticks();
 8001d66:	f006 f974 	bl	8008052 <z_impl_k_uptime_ticks>
 *
 * @return Current uptime in milliseconds.
 */
static inline int64_t k_uptime_get(void)
{
	return k_ticks_to_ms_floor64(k_uptime_ticks());
 8001d6a:	220a      	movs	r2, #10
 8001d6c:	2300      	movs	r3, #0
 8001d6e:	f7fe faad 	bl	80002cc <__aeabi_uldivmod>
		   (k_uptime_get() - last_failure_report) > CONFIG_LOG_FAILURE_REPORT_PERIOD) {
 8001d72:	e9d4 3200 	ldrd	r3, r2, [r4]
 8001d76:	1ac0      	subs	r0, r0, r3
		if ((dropped_pend || unordered_pend) &&
 8001d78:	f240 33e9 	movw	r3, #1001	; 0x3e9
		   (k_uptime_get() - last_failure_report) > CONFIG_LOG_FAILURE_REPORT_PERIOD) {
 8001d7c:	eb61 0102 	sbc.w	r1, r1, r2
		if ((dropped_pend || unordered_pend) &&
 8001d80:	4298      	cmp	r0, r3
 8001d82:	f171 0100 	sbcs.w	r1, r1, #0
 8001d86:	d301      	bcc.n	8001d8c <z_impl_log_process+0x44>
				dropped_notify();
 8001d88:	f7ff ff80 	bl	8001c8c <dropped_notify>
		last_failure_report += CONFIG_LOG_FAILURE_REPORT_PERIOD;
 8001d8c:	e9d4 3200 	ldrd	r3, r2, [r4]
 8001d90:	f513 737a 	adds.w	r3, r3, #1000	; 0x3e8
 8001d94:	f142 0200 	adc.w	r2, r2, #0
 8001d98:	e9c4 3200 	strd	r3, r2, [r4]
}
 8001d9c:	e8bd 4070 	ldmia.w	sp!, {r4, r5, r6, lr}
	return z_log_msg_pending();
 8001da0:	f7ff bfcc 	b.w	8001d3c <z_log_msg_pending>
	return backend->cb->active;
 8001da4:	6863      	ldr	r3, [r4, #4]
		if (log_backend_is_active(backend) &&
 8001da6:	795b      	ldrb	r3, [r3, #5]
 8001da8:	b123      	cbz	r3, 8001db4 <z_impl_log_process+0x6c>
	backend->api->process(backend, msg);
 8001daa:	6823      	ldr	r3, [r4, #0]
 8001dac:	4629      	mov	r1, r5
 8001dae:	4620      	mov	r0, r4
 8001db0:	681b      	ldr	r3, [r3, #0]
 8001db2:	4798      	blx	r3
	STRUCT_SECTION_FOREACH(log_backend, backend) {
 8001db4:	3410      	adds	r4, #16
 8001db6:	42b4      	cmp	r4, r6
 8001db8:	d3f4      	bcc.n	8001da4 <z_impl_log_process+0x5c>
		z_log_msg_free(msg);
 8001dba:	4628      	mov	r0, r5
 8001dbc:	f7ff ffb6 	bl	8001d2c <z_log_msg_free>
	return __atomic_fetch_sub(target, value, __ATOMIC_SEQ_CST);
 8001dc0:	4b0b      	ldr	r3, [pc, #44]	; (8001df0 <z_impl_log_process+0xa8>)
 8001dc2:	f3bf 8f5b 	dmb	ish
 8001dc6:	e853 1f00 	ldrex	r1, [r3]
 8001dca:	3901      	subs	r1, #1
 8001dcc:	e843 1200 	strex	r2, r1, [r3]
 8001dd0:	2a00      	cmp	r2, #0
 8001dd2:	d1f8      	bne.n	8001dc6 <z_impl_log_process+0x7e>
 8001dd4:	f3bf 8f5b 	dmb	ish
 8001dd8:	e7c0      	b.n	8001d5c <z_impl_log_process+0x14>
	STRUCT_SECTION_FOREACH(log_backend, backend) {
 8001dda:	4c06      	ldr	r4, [pc, #24]	; (8001df4 <z_impl_log_process+0xac>)
 8001ddc:	4e06      	ldr	r6, [pc, #24]	; (8001df8 <z_impl_log_process+0xb0>)
 8001dde:	e7ea      	b.n	8001db6 <z_impl_log_process+0x6e>
}
 8001de0:	bd70      	pop	{r4, r5, r6, pc}
 8001de2:	bf00      	nop
 8001de4:	24001024 	.word	0x24001024
 8001de8:	24000e40 	.word	0x24000e40
 8001dec:	24000af0 	.word	0x24000af0
 8001df0:	24000e44 	.word	0x24000e44
 8001df4:	08008d14 	.word	0x08008d14
 8001df8:	08008d24 	.word	0x08008d24

08001dfc <z_impl_log_panic>:
{
 8001dfc:	b570      	push	{r4, r5, r6, lr}
	if (panic_mode) {
 8001dfe:	4d0d      	ldr	r5, [pc, #52]	; (8001e34 <z_impl_log_panic+0x38>)
 8001e00:	7829      	ldrb	r1, [r5, #0]
 8001e02:	b961      	cbnz	r1, 8001e1e <z_impl_log_panic+0x22>
	STRUCT_SECTION_FOREACH(log_backend, backend) {
 8001e04:	4c0c      	ldr	r4, [pc, #48]	; (8001e38 <z_impl_log_panic+0x3c>)
	(void)z_log_init(true, false);
 8001e06:	2001      	movs	r0, #1
	STRUCT_SECTION_FOREACH(log_backend, backend) {
 8001e08:	4e0c      	ldr	r6, [pc, #48]	; (8001e3c <z_impl_log_panic+0x40>)
	(void)z_log_init(true, false);
 8001e0a:	f7ff fe97 	bl	8001b3c <z_log_init>
	STRUCT_SECTION_FOREACH(log_backend, backend) {
 8001e0e:	42b4      	cmp	r4, r6
 8001e10:	d306      	bcc.n	8001e20 <z_impl_log_panic+0x24>
	if (z_syscall_trap()) {
		return (bool) arch_syscall_invoke0(K_SYSCALL_LOG_PROCESS);
	}
#endif
	compiler_barrier();
	return z_impl_log_process();
 8001e12:	f7ff ff99 	bl	8001d48 <z_impl_log_process>
		while (log_process() == true) {
 8001e16:	2800      	cmp	r0, #0
 8001e18:	d1fb      	bne.n	8001e12 <z_impl_log_panic+0x16>
	panic_mode = true;
 8001e1a:	2301      	movs	r3, #1
 8001e1c:	702b      	strb	r3, [r5, #0]
}
 8001e1e:	bd70      	pop	{r4, r5, r6, pc}
	return backend->cb->active;
 8001e20:	6863      	ldr	r3, [r4, #4]
		if (log_backend_is_active(backend)) {
 8001e22:	795b      	ldrb	r3, [r3, #5]
 8001e24:	b11b      	cbz	r3, 8001e2e <z_impl_log_panic+0x32>
	backend->api->panic(backend);
 8001e26:	6823      	ldr	r3, [r4, #0]
 8001e28:	4620      	mov	r0, r4
 8001e2a:	689b      	ldr	r3, [r3, #8]
 8001e2c:	4798      	blx	r3
	STRUCT_SECTION_FOREACH(log_backend, backend) {
 8001e2e:	3410      	adds	r4, #16
 8001e30:	e7ed      	b.n	8001e0e <z_impl_log_panic+0x12>
 8001e32:	bf00      	nop
 8001e34:	24001025 	.word	0x24001025
 8001e38:	08008d14 	.word	0x08008d14
 8001e3c:	08008d24 	.word	0x08008d24

08001e40 <log_process_thread_func>:
	uint32_t activate_mask = z_log_init(false, false);
 8001e40:	2100      	movs	r1, #0
{
 8001e42:	e92d 47f0 	stmdb	sp!, {r4, r5, r6, r7, r8, r9, sl, lr}
	uint32_t activate_mask = z_log_init(false, false);
 8001e46:	4608      	mov	r0, r1
 8001e48:	f7ff fe78 	bl	8001b3c <z_log_init>
	k_timeout_t timeout = (activate_mask != 0) ? K_MSEC(50) : K_FOREVER;
 8001e4c:	4604      	mov	r4, r0
 8001e4e:	b358      	cbz	r0, 8001ea8 <log_process_thread_func+0x68>
 8001e50:	f44f 78fa 	mov.w	r8, #500	; 0x1f4
 8001e54:	f04f 0900 	mov.w	r9, #0
	return z_tls_current;
 8001e58:	4b1c      	ldr	r3, [pc, #112]	; (8001ecc <log_process_thread_func+0x8c>)
 8001e5a:	f006 fb05 	bl	8008468 <__aeabi_read_tp>
	proc_tid = process_tid;
 8001e5e:	4a1c      	ldr	r2, [pc, #112]	; (8001ed0 <log_process_thread_func+0x90>)
 8001e60:	581b      	ldr	r3, [r3, r0]
 8001e62:	6013      	str	r3, [r2, #0]
	if (CONFIG_LOG_PROCESS_TRIGGER_THRESHOLD &&
 8001e64:	b133      	cbz	r3, 8001e74 <log_process_thread_func+0x34>
	    buffered_cnt >= CONFIG_LOG_PROCESS_TRIGGER_THRESHOLD) {
 8001e66:	4b1b      	ldr	r3, [pc, #108]	; (8001ed4 <log_process_thread_func+0x94>)
	    process_tid &&
 8001e68:	681b      	ldr	r3, [r3, #0]
 8001e6a:	2b09      	cmp	r3, #9
 8001e6c:	dd02      	ble.n	8001e74 <log_process_thread_func+0x34>
	z_impl_k_sem_give(sem);
 8001e6e:	481a      	ldr	r0, [pc, #104]	; (8001ed8 <log_process_thread_func+0x98>)
 8001e70:	f002 ff66 	bl	8004d40 <z_impl_k_sem_give>
	k_timeout_t timeout = (activate_mask != 0) ? K_MSEC(50) : K_FOREVER;
 8001e74:	2500      	movs	r5, #0
	STRUCT_SECTION_FOREACH(log_backend, backend) {
 8001e76:	4f19      	ldr	r7, [pc, #100]	; (8001edc <log_process_thread_func+0x9c>)
	return z_impl_k_sem_take(sem, timeout);
 8001e78:	f8df a05c 	ldr.w	sl, [pc, #92]	; 8001ed8 <log_process_thread_func+0x98>
		if (activate_mask) {
 8001e7c:	b144      	cbz	r4, 8001e90 <log_process_thread_func+0x50>
			activate_mask = activate_foreach_backend(activate_mask);
 8001e7e:	4620      	mov	r0, r4
 8001e80:	f7ff fdf6 	bl	8001a70 <activate_foreach_backend>
			if (!activate_mask) {
 8001e84:	4604      	mov	r4, r0
 8001e86:	b918      	cbnz	r0, 8001e90 <log_process_thread_func+0x50>
				timeout = K_FOREVER;
 8001e88:	f04f 38ff 	mov.w	r8, #4294967295	; 0xffffffff
 8001e8c:	f04f 39ff 	mov.w	r9, #4294967295	; 0xffffffff
 8001e90:	f7ff ff5a 	bl	8001d48 <z_impl_log_process>
		if (log_process() == false) {
 8001e94:	4606      	mov	r6, r0
 8001e96:	b928      	cbnz	r0, 8001ea4 <log_process_thread_func+0x64>
			if (processed_any) {
 8001e98:	b9b5      	cbnz	r5, 8001ec8 <log_process_thread_func+0x88>
 8001e9a:	4642      	mov	r2, r8
 8001e9c:	464b      	mov	r3, r9
 8001e9e:	4650      	mov	r0, sl
 8001ea0:	f002 ff82 	bl	8004da8 <z_impl_k_sem_take>
	k_timeout_t timeout = (activate_mask != 0) ? K_MSEC(50) : K_FOREVER;
 8001ea4:	4635      	mov	r5, r6
 8001ea6:	e7e9      	b.n	8001e7c <log_process_thread_func+0x3c>
 8001ea8:	f04f 38ff 	mov.w	r8, #4294967295	; 0xffffffff
 8001eac:	f04f 39ff 	mov.w	r9, #4294967295	; 0xffffffff
 8001eb0:	e7d2      	b.n	8001e58 <log_process_thread_func+0x18>
				      enum log_backend_evt event,
				      union log_backend_evt_arg *arg)
{
	__ASSERT_NO_MSG(backend != NULL);

	if (backend->api->notify) {
 8001eb2:	682b      	ldr	r3, [r5, #0]
 8001eb4:	699b      	ldr	r3, [r3, #24]
 8001eb6:	b11b      	cbz	r3, 8001ec0 <log_process_thread_func+0x80>
		backend->api->notify(backend, event, arg);
 8001eb8:	2200      	movs	r2, #0
 8001eba:	4628      	mov	r0, r5
 8001ebc:	4611      	mov	r1, r2
 8001ebe:	4798      	blx	r3
	STRUCT_SECTION_FOREACH(log_backend, backend) {
 8001ec0:	3510      	adds	r5, #16
 8001ec2:	42bd      	cmp	r5, r7
 8001ec4:	d3f5      	bcc.n	8001eb2 <log_process_thread_func+0x72>
 8001ec6:	e7e8      	b.n	8001e9a <log_process_thread_func+0x5a>
 8001ec8:	4d05      	ldr	r5, [pc, #20]	; (8001ee0 <log_process_thread_func+0xa0>)
 8001eca:	e7fa      	b.n	8001ec2 <log_process_thread_func+0x82>
 8001ecc:	00000008 	.word	0x00000008
 8001ed0:	24000e3c 	.word	0x24000e3c
 8001ed4:	24000e44 	.word	0x24000e44
 8001ed8:	24000620 	.word	0x24000620
 8001edc:	08008d24 	.word	0x08008d24
 8001ee0:	08008d14 	.word	0x08008d14

08001ee4 <z_log_msg_post_finalize>:
{
 8001ee4:	b513      	push	{r0, r1, r4, lr}
	atomic_val_t cnt = atomic_inc(&buffered_cnt);
 8001ee6:	4818      	ldr	r0, [pc, #96]	; (8001f48 <z_log_msg_post_finalize+0x64>)
 8001ee8:	f005 fac5 	bl	8007476 <atomic_inc>
	if (panic_mode) {
 8001eec:	4b17      	ldr	r3, [pc, #92]	; (8001f4c <z_log_msg_post_finalize+0x68>)
 8001eee:	781b      	ldrb	r3, [r3, #0]
 8001ef0:	b173      	cbz	r3, 8001f10 <z_log_msg_post_finalize+0x2c>
 */
__STATIC_FORCEINLINE uint32_t __get_BASEPRI(void)
{
  uint32_t result;

  __ASM volatile ("MRS %0, basepri" : "=r" (result) );
 8001ef2:	f3ef 8411 	mrs	r4, BASEPRI
           or the new value increases the BASEPRI priority level.
  \param [in]    basePri  Base Priority value to set
 */
__STATIC_FORCEINLINE void __set_BASEPRI_MAX(uint32_t basePri)
{
  __ASM volatile ("MSR basepri_max, %0" : : "r" (basePri) : "memory");
 8001ef6:	2310      	movs	r3, #16
 8001ef8:	f383 8812 	msr	BASEPRI_MAX, r3
  __ASM volatile ("isb 0xF":::"memory");
 8001efc:	f3bf 8f6f 	isb	sy
 8001f00:	f7ff ff22 	bl	8001d48 <z_impl_log_process>
  __ASM volatile ("MSR basepri, %0" : : "r" (basePri) : "memory");
 8001f04:	f384 8811 	msr	BASEPRI, r4
  __ASM volatile ("isb 0xF":::"memory");
 8001f08:	f3bf 8f6f 	isb	sy
}
 8001f0c:	b002      	add	sp, #8
 8001f0e:	bd10      	pop	{r4, pc}
	} else if (proc_tid != NULL) {
 8001f10:	4b0f      	ldr	r3, [pc, #60]	; (8001f50 <z_log_msg_post_finalize+0x6c>)
 8001f12:	681b      	ldr	r3, [r3, #0]
 8001f14:	2b00      	cmp	r3, #0
 8001f16:	d0f9      	beq.n	8001f0c <z_log_msg_post_finalize+0x28>
			if (cnt == 0) {
 8001f18:	b950      	cbnz	r0, 8001f30 <z_log_msg_post_finalize+0x4c>
	z_impl_k_timer_start(timer, duration, period);
 8001f1a:	2200      	movs	r2, #0
 8001f1c:	2300      	movs	r3, #0
 8001f1e:	480d      	ldr	r0, [pc, #52]	; (8001f54 <z_log_msg_post_finalize+0x70>)
 8001f20:	e9cd 2300 	strd	r2, r3, [sp]
 8001f24:	f242 7210 	movw	r2, #10000	; 0x2710
 8001f28:	2300      	movs	r3, #0
 8001f2a:	f003 fccb 	bl	80058c4 <z_impl_k_timer_start>
 8001f2e:	e7ed      	b.n	8001f0c <z_log_msg_post_finalize+0x28>
			} else if (CONFIG_LOG_PROCESS_TRIGGER_THRESHOLD &&
 8001f30:	2809      	cmp	r0, #9
 8001f32:	d1eb      	bne.n	8001f0c <z_log_msg_post_finalize+0x28>
	z_impl_k_timer_stop(timer);
 8001f34:	4807      	ldr	r0, [pc, #28]	; (8001f54 <z_log_msg_post_finalize+0x70>)
 8001f36:	f006 f89a 	bl	800806e <z_impl_k_timer_stop>
	z_impl_k_sem_give(sem);
 8001f3a:	4807      	ldr	r0, [pc, #28]	; (8001f58 <z_log_msg_post_finalize+0x74>)
}
 8001f3c:	b002      	add	sp, #8
 8001f3e:	e8bd 4010 	ldmia.w	sp!, {r4, lr}
 8001f42:	f002 befd 	b.w	8004d40 <z_impl_k_sem_give>
 8001f46:	bf00      	nop
 8001f48:	24000e44 	.word	0x24000e44
 8001f4c:	24001025 	.word	0x24001025
 8001f50:	24000e3c 	.word	0x24000e3c
 8001f54:	24000af8 	.word	0x24000af8
 8001f58:	24000620 	.word	0x24000620

08001f5c <z_log_msg_commit>:
	msg->hdr.timestamp = timestamp_func();
 8001f5c:	4b06      	ldr	r3, [pc, #24]	; (8001f78 <z_log_msg_commit+0x1c>)
{
 8001f5e:	b510      	push	{r4, lr}
 8001f60:	4604      	mov	r4, r0
	msg->hdr.timestamp = timestamp_func();
 8001f62:	681b      	ldr	r3, [r3, #0]
 8001f64:	4798      	blx	r3
	mpsc_pbuf_commit(buffer, &m->buf);
 8001f66:	4621      	mov	r1, r4
	msg->hdr.timestamp = timestamp_func();
 8001f68:	60a0      	str	r0, [r4, #8]
	mpsc_pbuf_commit(buffer, &m->buf);
 8001f6a:	4804      	ldr	r0, [pc, #16]	; (8001f7c <z_log_msg_commit+0x20>)
 8001f6c:	f005 f9a9 	bl	80072c2 <mpsc_pbuf_commit>
}
 8001f70:	e8bd 4010 	ldmia.w	sp!, {r4, lr}
	z_log_msg_post_finalize();
 8001f74:	f7ff bfb6 	b.w	8001ee4 <z_log_msg_post_finalize>
 8001f78:	24000570 	.word	0x24000570
 8001f7c:	240005e4 	.word	0x240005e4

08001f80 <log_source_name_get>:
 * @return Source ID.
 */
static inline uint32_t log_const_source_id(
				const struct log_source_const_data *data)
{
	return ((const uint8_t *)data - (uint8_t *)TYPE_SECTION_START(log_const))/
 8001f80:	4a04      	ldr	r2, [pc, #16]	; (8001f94 <log_source_name_get+0x14>)
 8001f82:	4b05      	ldr	r3, [pc, #20]	; (8001f98 <log_source_name_get+0x18>)
 8001f84:	1a9b      	subs	r3, r3, r2
{
	if (z_log_is_local_domain(domain_id)) {
		if (IS_ENABLED(CONFIG_LOG_FMT_SECTION_STRIP)) {
			return "unknown";
		}
		if (source_id < log_src_cnt_get(domain_id)) {
 8001f86:	ebb1 0fd3 	cmp.w	r1, r3, lsr #3
			return TYPE_SECTION_START(log_const)[source_id].name;
 8001f8a:	bf34      	ite	cc
 8001f8c:	f852 0031 	ldrcc.w	r0, [r2, r1, lsl #3]
		} else {
			return NULL;
 8001f90:	2000      	movcs	r0, #0
		}
	}

	return link_source_name_get(domain_id, source_id);
}
 8001f92:	4770      	bx	lr
 8001f94:	08008ca4 	.word	0x08008ca4
 8001f98:	08008d14 	.word	0x08008d14

08001f9c <z_impl_z_log_msg_static_create>:
}

void z_impl_z_log_msg_static_create(const void *source,
			      const struct log_msg_desc desc,
			      uint8_t *package, const void *data)
{
 8001f9c:	e92d 4ff0 	stmdb	sp!, {r4, r5, r6, r7, r8, r9, sl, fp, lr}
 8001fa0:	b08f      	sub	sp, #60	; 0x3c
 8001fa2:	f3c1 284a 	ubfx	r8, r1, #9, #11
 8001fa6:	460d      	mov	r5, r1
 8001fa8:	4691      	mov	r9, r2
 8001faa:	af04      	add	r7, sp, #16

	if (!BACKENDS_IN_USE()) {
		return;
	}

	struct log_msg_desc out_desc = desc;
 8001fac:	0d0c      	lsrs	r4, r1, #20
{
 8001fae:	60b8      	str	r0, [r7, #8]
 8001fb0:	607b      	str	r3, [r7, #4]
	int inlen = desc.package_len;
	struct log_msg *msg;

	if (inlen > 0) {
 8001fb2:	f1b8 0f00 	cmp.w	r8, #0
 8001fb6:	d063      	beq.n	8002080 <z_impl_z_log_msg_static_create+0xe4>
					size_t len,
					uint32_t flags,
					uint16_t *strl,
					size_t strl_len)
{
	struct z_cbprintf_buf_desc buf_desc = {
 8001fb8:	2600      	movs	r6, #0
		.buf = packaged,
		.size = len,
		.off = 0,
	};

	return cbprintf_package_convert(in_packaged, in_len,
 8001fba:	f107 0314 	add.w	r3, r7, #20
 8001fbe:	f04f 0b04 	mov.w	fp, #4
 8001fc2:	f04f 0a0a 	mov.w	sl, #10
				 (IS_ENABLED(CONFIG_LOG_FMT_SECTION_STRIP) ?
				 0 : CBPRINTF_PACKAGE_CONVERT_PTR_CHECK);
		uint16_t strl[4];
		int len;

		len = cbprintf_package_copy(package, inlen,
 8001fc6:	f8c7 800c 	str.w	r8, [r7, #12]
 8001fca:	4632      	mov	r2, r6
	struct z_cbprintf_buf_desc buf_desc = {
 8001fcc:	627e      	str	r6, [r7, #36]	; 0x24
	return cbprintf_package_convert(in_packaged, in_len,
 8001fce:	4648      	mov	r0, r9
	struct z_cbprintf_buf_desc buf_desc = {
 8001fd0:	e9c7 6607 	strd	r6, r6, [r7, #28]
	return cbprintf_package_convert(in_packaged, in_len,
 8001fd4:	9301      	str	r3, [sp, #4]
 8001fd6:	f107 031c 	add.w	r3, r7, #28
 8001fda:	f8cd b008 	str.w	fp, [sp, #8]
 8001fde:	f8cd a000 	str.w	sl, [sp]
 8001fe2:	68f9      	ldr	r1, [r7, #12]
 8001fe4:	f7ff fafc 	bl	80015e0 <cbprintf_package_convert>
					    NULL, 0, flags,
					    strl, ARRAY_SIZE(strl));

		if (len > Z_LOG_MSG_MAX_PACKAGE) {
 8001fe8:	f5b0 6f00 	cmp.w	r0, #2048	; 0x800
 8001fec:	4603      	mov	r3, r0
 8001fee:	d31c      	bcc.n	800202a <z_impl_z_log_msg_static_create+0x8e>
			struct cbprintf_package_hdr_ext *pkg =
				(struct cbprintf_package_hdr_ext *)package;

			LOG_WRN("Message (\"%s\") dropped because it exceeds size limitation (%u)",
 8001ff0:	466c      	mov	r4, sp
 8001ff2:	b08a      	sub	sp, #40	; 0x28
 8001ff4:	f8d9 1004 	ldr.w	r1, [r9, #4]
 8001ff8:	ab04      	add	r3, sp, #16
 8001ffa:	4826      	ldr	r0, [pc, #152]	; (8002094 <z_impl_z_log_msg_static_create+0xf8>)
 8001ffc:	461a      	mov	r2, r3
 8001ffe:	e9c3 0105 	strd	r0, r1, [r3, #20]
 8002002:	f240 71ff 	movw	r1, #2047	; 0x7ff
 8002006:	61d9      	str	r1, [r3, #28]
 8002008:	f44f 7100 	mov.w	r1, #512	; 0x200
 800200c:	8419      	strh	r1, [r3, #32]
 800200e:	4b22      	ldr	r3, [pc, #136]	; (8002098 <z_impl_z_log_msg_static_create+0xfc>)
 8002010:	f842 3f10 	str.w	r3, [r2, #16]!
 8002014:	f44f 5112 	mov.w	r1, #9344	; 0x2480
 8002018:	4633      	mov	r3, r6
 800201a:	4820      	ldr	r0, [pc, #128]	; (800209c <z_impl_z_log_msg_static_create+0x100>)
 800201c:	f7ff ffbe 	bl	8001f9c <z_impl_z_log_msg_static_create>
 8002020:	46a5      	mov	sp, r4
	} else {
		msg = z_log_msg_alloc(log_msg_get_total_wlen(out_desc));
	}

	z_log_msg_finalize(msg, source, out_desc, data);
}
 8002022:	372c      	adds	r7, #44	; 0x2c
 8002024:	46bd      	mov	sp, r7
 8002026:	e8bd 8ff0 	ldmia.w	sp!, {r4, r5, r6, r7, r8, r9, sl, fp, pc}
		out_desc.package_len = len;
 800202a:	f3c0 080a 	ubfx	r8, r0, #0, #11
 *
 * @return Length.
 */
static inline uint32_t log_msg_get_total_wlen(const struct log_msg_desc desc)
{
	return Z_LOG_MSG_ALIGNED_WLEN(desc.package_len, desc.data_len);
 800202e:	f104 0017 	add.w	r0, r4, #23
 8002032:	603b      	str	r3, [r7, #0]
 8002034:	4418      	add	r0, r3
		msg = z_log_msg_alloc(log_msg_get_total_wlen(out_desc));
 8002036:	f368 2553 	bfi	r5, r8, #9, #11
 800203a:	f020 0007 	bic.w	r0, r0, #7
 800203e:	0880      	lsrs	r0, r0, #2
 8002040:	f7ff fe66 	bl	8001d10 <z_log_msg_alloc>
		if (msg) {
 8002044:	4604      	mov	r4, r0
 8002046:	b190      	cbz	r0, 800206e <z_impl_z_log_msg_static_create+0xd2>
	struct z_cbprintf_buf_desc buf_desc = {
 8002048:	683b      	ldr	r3, [r7, #0]
						    msg->data, out_desc.package_len,
 800204a:	f100 0110 	add.w	r1, r0, #16
	return cbprintf_package_convert(in_packaged, in_len,
 800204e:	4a14      	ldr	r2, [pc, #80]	; (80020a0 <z_impl_z_log_msg_static_create+0x104>)
 8002050:	4648      	mov	r0, r9
	struct z_cbprintf_buf_desc buf_desc = {
 8002052:	61f9      	str	r1, [r7, #28]
 8002054:	e9c7 3608 	strd	r3, r6, [r7, #32]
	return cbprintf_package_convert(in_packaged, in_len,
 8002058:	f107 0314 	add.w	r3, r7, #20
 800205c:	f8cd b008 	str.w	fp, [sp, #8]
 8002060:	e9cd a300 	strd	sl, r3, [sp]
 8002064:	f107 031c 	add.w	r3, r7, #28
 8002068:	68f9      	ldr	r1, [r7, #12]
 800206a:	f7ff fab9 	bl	80015e0 <cbprintf_package_convert>
	z_log_msg_finalize(msg, source, out_desc, data);
 800206e:	f368 2553 	bfi	r5, r8, #9, #11
 8002072:	687b      	ldr	r3, [r7, #4]
 8002074:	68b9      	ldr	r1, [r7, #8]
 8002076:	4620      	mov	r0, r4
 8002078:	462a      	mov	r2, r5
 800207a:	f005 fa43 	bl	8007504 <z_log_msg_finalize>
 800207e:	e7d0      	b.n	8002022 <z_impl_z_log_msg_static_create+0x86>
 8002080:	f104 0017 	add.w	r0, r4, #23
 8002084:	f020 0007 	bic.w	r0, r0, #7
		msg = z_log_msg_alloc(log_msg_get_total_wlen(out_desc));
 8002088:	0880      	lsrs	r0, r0, #2
 800208a:	f7ff fe41 	bl	8001d10 <z_log_msg_alloc>
 800208e:	4604      	mov	r4, r0
 8002090:	e7ed      	b.n	800206e <z_impl_z_log_msg_static_create+0xd2>
 8002092:	bf00      	nop
 8002094:	0800a04f 	.word	0x0800a04f
 8002098:	01000004 	.word	0x01000004
 800209c:	08008ccc 	.word	0x08008ccc
 80020a0:	080074d9 	.word	0x080074d9

080020a4 <z_log_msg_runtime_vcreate>:
#endif

void z_log_msg_runtime_vcreate(uint8_t domain_id, const void *source,
				uint8_t level, const void *data, size_t dlen,
				uint32_t package_flags, const char *fmt, va_list ap)
{
 80020a4:	e92d 4ff0 	stmdb	sp!, {r4, r5, r6, r7, r8, r9, sl, fp, lr}
 80020a8:	b087      	sub	sp, #28
 80020aa:	4604      	mov	r4, r0
 80020ac:	4693      	mov	fp, r2
 80020ae:	4698      	mov	r8, r3
 80020b0:	9103      	str	r1, [sp, #12]
 80020b2:	e9dd 7912 	ldrd	r7, r9, [sp, #72]	; 0x48
 80020b6:	e9dd 5a10 	ldrd	r5, sl, [sp, #64]	; 0x40
	int plen;

	if (fmt) {
 80020ba:	b1bf      	cbz	r7, 80020ec <z_log_msg_runtime_vcreate+0x48>
		va_list ap2;

		va_copy(ap2, ap);
		plen = cbvprintf_package(NULL, Z_LOG_MSG_ALIGN_OFFSET,
 80020bc:	463b      	mov	r3, r7
 80020be:	4652      	mov	r2, sl
 80020c0:	2110      	movs	r1, #16
 80020c2:	2000      	movs	r0, #0
 80020c4:	f8cd 9000 	str.w	r9, [sp]
		va_copy(ap2, ap);
 80020c8:	f8cd 9014 	str.w	r9, [sp, #20]
		plen = cbvprintf_package(NULL, Z_LOG_MSG_ALIGN_OFFSET,
 80020cc:	f7ff f8b6 	bl	800123c <cbvprintf_package>
		va_end(ap2);
	} else {
		plen = 0;
	}

	if (plen > Z_LOG_MSG_MAX_PACKAGE) {
 80020d0:	f5b0 6f00 	cmp.w	r0, #2048	; 0x800
		plen = cbvprintf_package(NULL, Z_LOG_MSG_ALIGN_OFFSET,
 80020d4:	4606      	mov	r6, r0
	if (plen > Z_LOG_MSG_MAX_PACKAGE) {
 80020d6:	d30a      	bcc.n	80020ee <z_log_msg_runtime_vcreate+0x4a>
	z_impl_z_log_msg_simple_create_1(source, level, fmt, arg);
 80020d8:	f240 73ff 	movw	r3, #2047	; 0x7ff
 80020dc:	4a17      	ldr	r2, [pc, #92]	; (800213c <z_log_msg_runtime_vcreate+0x98>)
 80020de:	2102      	movs	r1, #2
 80020e0:	4817      	ldr	r0, [pc, #92]	; (8002140 <z_log_msg_runtime_vcreate+0x9c>)
	}

	if (BACKENDS_IN_USE()) {
		z_log_msg_finalize(msg, source, desc, data);
	}
}
 80020e2:	b007      	add	sp, #28
 80020e4:	e8bd 4ff0 	ldmia.w	sp!, {r4, r5, r6, r7, r8, r9, sl, fp, lr}
 80020e8:	f005 ba65 	b.w	80075b6 <z_impl_z_log_msg_simple_create_1>
		plen = 0;
 80020ec:	463e      	mov	r6, r7
	struct log_msg_desc desc =
 80020ee:	f004 0407 	and.w	r4, r4, #7
	size_t msg_wlen = Z_LOG_MSG_ALIGNED_WLEN(plen, dlen);
 80020f2:	f105 0017 	add.w	r0, r5, #23
	struct log_msg_desc desc =
 80020f6:	f00b 0b07 	and.w	fp, fp, #7
 80020fa:	00e4      	lsls	r4, r4, #3
	size_t msg_wlen = Z_LOG_MSG_ALIGNED_WLEN(plen, dlen);
 80020fc:	4430      	add	r0, r6
	struct log_msg_desc desc =
 80020fe:	ea44 148b 	orr.w	r4, r4, fp, lsl #6
	size_t msg_wlen = Z_LOG_MSG_ALIGNED_WLEN(plen, dlen);
 8002102:	f020 0007 	bic.w	r0, r0, #7
	struct log_msg_desc desc =
 8002106:	ea44 2446 	orr.w	r4, r4, r6, lsl #9
		msg = z_log_msg_alloc(msg_wlen);
 800210a:	0880      	lsrs	r0, r0, #2
	struct log_msg_desc desc =
 800210c:	ea44 5405 	orr.w	r4, r4, r5, lsl #20
		msg = z_log_msg_alloc(msg_wlen);
 8002110:	f7ff fdfe 	bl	8001d10 <z_log_msg_alloc>
			pkg = msg ? msg->data : NULL;
 8002114:	4605      	mov	r5, r0
 8002116:	b140      	cbz	r0, 800212a <z_log_msg_runtime_vcreate+0x86>
	if (pkg && fmt) {
 8002118:	b13f      	cbz	r7, 800212a <z_log_msg_runtime_vcreate+0x86>
		plen = cbvprintf_package(pkg, (size_t)plen, package_flags, fmt, ap);
 800211a:	463b      	mov	r3, r7
 800211c:	4652      	mov	r2, sl
 800211e:	4631      	mov	r1, r6
 8002120:	3010      	adds	r0, #16
 8002122:	f8cd 9000 	str.w	r9, [sp]
 8002126:	f7ff f889 	bl	800123c <cbvprintf_package>
		z_log_msg_finalize(msg, source, desc, data);
 800212a:	4643      	mov	r3, r8
 800212c:	4622      	mov	r2, r4
 800212e:	9903      	ldr	r1, [sp, #12]
 8002130:	4628      	mov	r0, r5
}
 8002132:	b007      	add	sp, #28
 8002134:	e8bd 4ff0 	ldmia.w	sp!, {r4, r5, r6, r7, r8, r9, sl, fp, lr}
		z_log_msg_finalize(msg, source, desc, data);
 8002138:	f005 b9e4 	b.w	8007504 <z_log_msg_finalize>
 800213c:	0800a08e 	.word	0x0800a08e
 8002140:	08008ccc 	.word	0x08008ccc

08002144 <log_msg_get_source_id>:
 *
 * @return Pointer to the source data.
 */
static inline const void *log_msg_get_source(struct log_msg *msg)
{
	return msg->hdr.source;
 8002144:	6840      	ldr	r0, [r0, #4]
		return (int16_t)(uintptr_t)log_msg_get_source(msg);
	}

	void *source = (void *)log_msg_get_source(msg);

	if (source != NULL) {
 8002146:	b120      	cbz	r0, 8002152 <log_msg_get_source_id+0xe>
 8002148:	4b03      	ldr	r3, [pc, #12]	; (8002158 <log_msg_get_source_id+0x14>)
 800214a:	1ac0      	subs	r0, r0, r3
		return log_source_id(source);
 800214c:	f340 00cf 	sbfx	r0, r0, #3, #16
 8002150:	4770      	bx	lr
	}

	return -1;
 8002152:	f04f 30ff 	mov.w	r0, #4294967295	; 0xffffffff
}
 8002156:	4770      	bx	lr
 8002158:	08008ca4 	.word	0x08008ca4

0800215c <print_formatted>:
	return 0;
}

static int print_formatted(const struct log_output *output,
			   const char *fmt, ...)
{
 800215c:	b40e      	push	{r1, r2, r3}
 800215e:	b503      	push	{r0, r1, lr}
 8002160:	ab03      	add	r3, sp, #12
 8002162:	4601      	mov	r1, r0
	va_list args;
	int length = 0;

	va_start(args, fmt);
	length = cbvprintf(out_func, (void *)output, fmt, args);
 8002164:	4805      	ldr	r0, [pc, #20]	; (800217c <print_formatted+0x20>)
{
 8002166:	f853 2b04 	ldr.w	r2, [r3], #4
	va_start(args, fmt);
 800216a:	9301      	str	r3, [sp, #4]
	length = cbvprintf(out_func, (void *)output, fmt, args);
 800216c:	f001 f88c 	bl	8003288 <cbvprintf>
	va_end(args);

	return length;
}
 8002170:	b002      	add	sp, #8
 8002172:	f85d eb04 	ldr.w	lr, [sp], #4
 8002176:	b003      	add	sp, #12
 8002178:	4770      	bx	lr
 800217a:	bf00      	nop
 800217c:	08007601 	.word	0x08007601

08002180 <newline_print>:
	if (IS_ENABLED(CONFIG_LOG_BACKEND_NET) &&
	    flags & LOG_OUTPUT_FLAG_FORMAT_SYSLOG) {
		return;
	}

	if ((flags & LOG_OUTPUT_FLAG_CRLF_NONE) != 0U) {
 8002180:	06ca      	lsls	r2, r1, #27
 8002182:	d405      	bmi.n	8002190 <newline_print+0x10>
		return;
	}

	if ((flags & LOG_OUTPUT_FLAG_CRLF_LFONLY) != 0U) {
 8002184:	068b      	lsls	r3, r1, #26
		print_formatted(ctx, "\n");
 8002186:	bf4c      	ite	mi
 8002188:	4902      	ldrmi	r1, [pc, #8]	; (8002194 <newline_print+0x14>)
	} else {
		print_formatted(ctx, "\r\n");
 800218a:	4903      	ldrpl	r1, [pc, #12]	; (8002198 <newline_print+0x18>)
 800218c:	f7ff bfe6 	b.w	800215c <print_formatted>
	}
}
 8002190:	4770      	bx	lr
 8002192:	bf00      	nop
 8002194:	0800a0c7 	.word	0x0800a0c7
 8002198:	0800a0c6 	.word	0x0800a0c6

0800219c <log_output_process>:
			uint8_t level,
			const uint8_t *package,
			const uint8_t *data,
			size_t data_len,
			uint32_t flags)
{
 800219c:	e92d 4ff0 	stmdb	sp!, {r4, r5, r6, r7, r8, r9, sl, fp, lr}
 80021a0:	b08b      	sub	sp, #44	; 0x2c
 80021a2:	469b      	mov	fp, r3
 80021a4:	4604      	mov	r4, r0
 80021a6:	460d      	mov	r5, r1
 80021a8:	9b16      	ldr	r3, [sp, #88]	; 0x58
 80021aa:	4690      	mov	r8, r2
 80021ac:	f89d a054 	ldrb.w	sl, [sp, #84]	; 0x54
 80021b0:	9306      	str	r3, [sp, #24]
 80021b2:	9b17      	ldr	r3, [sp, #92]	; 0x5c
 80021b4:	9e19      	ldr	r6, [sp, #100]	; 0x64
 80021b6:	9305      	str	r3, [sp, #20]
 80021b8:	9b18      	ldr	r3, [sp, #96]	; 0x60
 80021ba:	9304      	str	r3, [sp, #16]
	bool raw_string = (level == LOG_LEVEL_INTERNAL_RAW_STRING);
	uint32_t prefix_offset;
	cbprintf_cb cb;

	if (!raw_string) {
 80021bc:	f1ba 0f00 	cmp.w	sl, #0
 80021c0:	f000 809e 	beq.w	8002300 <log_output_process+0x164>
	bool colors_on = flags & LOG_OUTPUT_FLAG_COLORS;
 80021c4:	f006 0301 	and.w	r3, r6, #1
	bool stamp = flags & LOG_OUTPUT_FLAG_TIMESTAMP;
 80021c8:	f006 0902 	and.w	r9, r6, #2
	bool colors_on = flags & LOG_OUTPUT_FLAG_COLORS;
 80021cc:	9308      	str	r3, [sp, #32]
	bool level_on = flags & LOG_OUTPUT_FLAG_LEVEL;
 80021ce:	f006 0308 	and.w	r3, r6, #8
 80021d2:	9307      	str	r3, [sp, #28]
	bool source_off = flags & LOG_OUTPUT_FLAG_SKIP_SOURCE;
 80021d4:	f406 7380 	and.w	r3, r6, #256	; 0x100
 80021d8:	9309      	str	r3, [sp, #36]	; 0x24
	const char *tag = IS_ENABLED(CONFIG_LOG) ? z_log_get_tag() : NULL;
 80021da:	f005 f972 	bl	80074c2 <z_log_get_tag>
	if (tag) {
 80021de:	4602      	mov	r2, r0
 80021e0:	2800      	cmp	r0, #0
 80021e2:	d03b      	beq.n	800225c <log_output_process+0xc0>
		length += print_formatted(output, "%s ", tag);
 80021e4:	498f      	ldr	r1, [pc, #572]	; (8002424 <log_output_process+0x288>)
 80021e6:	4620      	mov	r0, r4
 80021e8:	f7ff ffb8 	bl	800215c <print_formatted>
 80021ec:	4607      	mov	r7, r0
	if (stamp) {
 80021ee:	f1b9 0f00 	cmp.w	r9, #0
 80021f2:	d008      	beq.n	8002206 <log_output_process+0x6a>
	if (!format) {
 80021f4:	f016 0f44 	tst.w	r6, #68	; 0x44
 80021f8:	d132      	bne.n	8002260 <log_output_process+0xc4>
		length = print_formatted(output, "[%08lu] ", timestamp);
 80021fa:	462a      	mov	r2, r5
 80021fc:	498a      	ldr	r1, [pc, #552]	; (8002428 <log_output_process+0x28c>)
 80021fe:	4620      	mov	r0, r4
 8002200:	f7ff ffac 	bl	800215c <print_formatted>
		length += timestamp_print(output, flags, timestamp);
 8002204:	4407      	add	r7, r0
	if (color) {
 8002206:	9b08      	ldr	r3, [sp, #32]
 8002208:	b153      	cbz	r3, 8002220 <log_output_process+0x84>
		const char *log_color = start && (colors[level] != NULL) ?
 800220a:	4b88      	ldr	r3, [pc, #544]	; (800242c <log_output_process+0x290>)
		print_formatted(output, "%s", log_color);
 800220c:	4620      	mov	r0, r4
 800220e:	4988      	ldr	r1, [pc, #544]	; (8002430 <log_output_process+0x294>)
		const char *log_color = start && (colors[level] != NULL) ?
 8002210:	f853 202a 	ldr.w	r2, [r3, sl, lsl #2]
		print_formatted(output, "%s", log_color);
 8002214:	4b87      	ldr	r3, [pc, #540]	; (8002434 <log_output_process+0x298>)
 8002216:	2a00      	cmp	r2, #0
 8002218:	bf08      	it	eq
 800221a:	461a      	moveq	r2, r3
 800221c:	f7ff ff9e 	bl	800215c <print_formatted>
	length += ids_print(output, level_on, func_on, thread_on, domain,
 8002220:	9b09      	ldr	r3, [sp, #36]	; 0x24
 8002222:	2b00      	cmp	r3, #0
 8002224:	d048      	beq.n	80022b8 <log_output_process+0x11c>
	if (level_on) {
 8002226:	9b07      	ldr	r3, [sp, #28]
 8002228:	2b00      	cmp	r3, #0
 800222a:	d162      	bne.n	80022f2 <log_output_process+0x156>
	if (domain) {
 800222c:	f1b8 0f00 	cmp.w	r8, #0
 8002230:	d064      	beq.n	80022fc <log_output_process+0x160>
		total += print_formatted(output, "%s/", domain);
 8002232:	4642      	mov	r2, r8
 8002234:	4980      	ldr	r1, [pc, #512]	; (8002438 <log_output_process+0x29c>)
 8002236:	4620      	mov	r0, r4
 8002238:	f7ff ff90 	bl	800215c <print_formatted>
 800223c:	4605      	mov	r5, r0
		 * appending <CR> to the new line character).
		 */
		cb = ((uintptr_t)source == 1) ? out_func : cr_out_func;
	}

	if (package) {
 800223e:	9b06      	ldr	r3, [sp, #24]
	length += ids_print(output, level_on, func_on, thread_on, domain,
 8002240:	443d      	add	r5, r7
	if (package) {
 8002242:	2b00      	cmp	r3, #0
 8002244:	d16b      	bne.n	800231e <log_output_process+0x182>

		(void)err;
		__ASSERT_NO_MSG(err >= 0);
	}

	if (data_len) {
 8002246:	9b04      	ldr	r3, [sp, #16]
 8002248:	2b00      	cmp	r3, #0
 800224a:	d171      	bne.n	8002330 <log_output_process+0x194>
	if (color) {
 800224c:	07f3      	lsls	r3, r6, #31
 800224e:	f100 80e2 	bmi.w	8002416 <log_output_process+0x27a>
	newline_print(output, flags);
 8002252:	4631      	mov	r1, r6
 8002254:	4620      	mov	r0, r4
 8002256:	f7ff ff93 	bl	8002180 <newline_print>
}
 800225a:	e0d6      	b.n	800240a <log_output_process+0x26e>
	uint32_t length = 0U;
 800225c:	4607      	mov	r7, r0
 800225e:	e7c6      	b.n	80021ee <log_output_process+0x52>
	} else if (freq != 0U) {
 8002260:	4b76      	ldr	r3, [pc, #472]	; (800243c <log_output_process+0x2a0>)
 8002262:	6818      	ldr	r0, [r3, #0]
 8002264:	2800      	cmp	r0, #0
 8002266:	d0cd      	beq.n	8002204 <log_output_process+0x68>
		timestamp /= timestamp_div;
 8002268:	4b75      	ldr	r3, [pc, #468]	; (8002440 <log_output_process+0x2a4>)
		ms = (remainder * 1000U) / freq;
 800226a:	f44f 797a 	mov.w	r9, #1000	; 0x3e8
				mins = seconds / 60U;
 800226e:	f04f 0c3c 	mov.w	ip, #60	; 0x3c
		timestamp /= timestamp_div;
 8002272:	681b      	ldr	r3, [r3, #0]
 8002274:	fbb5 f5f3 	udiv	r5, r5, r3
		total_seconds = timestamp / freq;
 8002278:	fbb5 f1f0 	udiv	r1, r5, r0
		remainder = timestamp % freq;
 800227c:	fb00 5511 	mls	r5, r0, r1, r5
 8002280:	f44f 6361 	mov.w	r3, #3600	; 0xe10
		ms = (remainder * 1000U) / freq;
 8002284:	fb09 f505 	mul.w	r5, r9, r5
				seconds -= hours * 3600U;
 8002288:	fbb1 f2f3 	udiv	r2, r1, r3
		us = (1000 * (remainder * 1000U - (ms * freq))) / freq;
 800228c:	fbb5 fef0 	udiv	lr, r5, r0
 8002290:	fb03 1112 	mls	r1, r3, r2, r1
 8002294:	fb00 551e 	mls	r5, r0, lr, r5
				mins = seconds / 60U;
 8002298:	fbb1 f3fc 	udiv	r3, r1, ip
		us = (1000 * (remainder * 1000U - (ms * freq))) / freq;
 800229c:	fb09 f505 	mul.w	r5, r9, r5
				length = print_formatted(output,
 80022a0:	fb0c 1113 	mls	r1, ip, r3, r1
		us = (1000 * (remainder * 1000U - (ms * freq))) / freq;
 80022a4:	fbb5 f5f0 	udiv	r5, r5, r0
				length = print_formatted(output,
 80022a8:	9100      	str	r1, [sp, #0]
 80022aa:	4620      	mov	r0, r4
 80022ac:	4965      	ldr	r1, [pc, #404]	; (8002444 <log_output_process+0x2a8>)
 80022ae:	e9cd e501 	strd	lr, r5, [sp, #4]
 80022b2:	f7ff ff53 	bl	800215c <print_formatted>
 80022b6:	e7a5      	b.n	8002204 <log_output_process+0x68>
	if (level_on) {
 80022b8:	9b07      	ldr	r3, [sp, #28]
 80022ba:	b1eb      	cbz	r3, 80022f8 <log_output_process+0x15c>
		total += print_formatted(output, "<%s> ", severity[level]);
 80022bc:	4b62      	ldr	r3, [pc, #392]	; (8002448 <log_output_process+0x2ac>)
 80022be:	4620      	mov	r0, r4
 80022c0:	4962      	ldr	r1, [pc, #392]	; (800244c <log_output_process+0x2b0>)
 80022c2:	f853 202a 	ldr.w	r2, [r3, sl, lsl #2]
 80022c6:	f7ff ff49 	bl	800215c <print_formatted>
 80022ca:	4605      	mov	r5, r0
	if (domain) {
 80022cc:	f1b8 0f00 	cmp.w	r8, #0
 80022d0:	d005      	beq.n	80022de <log_output_process+0x142>
		total += print_formatted(output, "%s/", domain);
 80022d2:	4642      	mov	r2, r8
 80022d4:	4958      	ldr	r1, [pc, #352]	; (8002438 <log_output_process+0x29c>)
 80022d6:	4620      	mov	r0, r4
 80022d8:	f7ff ff40 	bl	800215c <print_formatted>
 80022dc:	4405      	add	r5, r0
	if (source) {
 80022de:	f1bb 0f00 	cmp.w	fp, #0
 80022e2:	d0ac      	beq.n	800223e <log_output_process+0xa2>
		total += print_formatted(output,
 80022e4:	465a      	mov	r2, fp
 80022e6:	495a      	ldr	r1, [pc, #360]	; (8002450 <log_output_process+0x2b4>)
 80022e8:	4620      	mov	r0, r4
 80022ea:	f7ff ff37 	bl	800215c <print_formatted>
 80022ee:	4405      	add	r5, r0
 80022f0:	e7a5      	b.n	800223e <log_output_process+0xa2>
	length += ids_print(output, level_on, func_on, thread_on, domain,
 80022f2:	f04f 0b00 	mov.w	fp, #0
 80022f6:	e7e1      	b.n	80022bc <log_output_process+0x120>
	int total = 0;
 80022f8:	9d07      	ldr	r5, [sp, #28]
 80022fa:	e7e7      	b.n	80022cc <log_output_process+0x130>
 80022fc:	4645      	mov	r5, r8
 80022fe:	e79e      	b.n	800223e <log_output_process+0xa2>
		cb = ((uintptr_t)source == 1) ? out_func : cr_out_func;
 8002300:	f1bb 0f01 	cmp.w	fp, #1
	if (package) {
 8002304:	9b06      	ldr	r3, [sp, #24]
		cb = ((uintptr_t)source == 1) ? out_func : cr_out_func;
 8002306:	d106      	bne.n	8002316 <log_output_process+0x17a>
	if (package) {
 8002308:	2b00      	cmp	r3, #0
 800230a:	d164      	bne.n	80023d6 <log_output_process+0x23a>
	if (data_len) {
 800230c:	9b04      	ldr	r3, [sp, #16]
 800230e:	2b00      	cmp	r3, #0
 8002310:	d07b      	beq.n	800240a <log_output_process+0x26e>
		prefix_offset = 0;
 8002312:	2500      	movs	r5, #0
 8002314:	e00c      	b.n	8002330 <log_output_process+0x194>
	if (package) {
 8002316:	2b00      	cmp	r3, #0
 8002318:	d0f8      	beq.n	800230c <log_output_process+0x170>
		cb = ((uintptr_t)source == 1) ? out_func : cr_out_func;
 800231a:	484e      	ldr	r0, [pc, #312]	; (8002454 <log_output_process+0x2b8>)
 800231c:	e05c      	b.n	80023d8 <log_output_process+0x23c>
		cb = out_func;
 800231e:	484e      	ldr	r0, [pc, #312]	; (8002458 <log_output_process+0x2bc>)
		return cbpprintf_external(out, cbvprintf_tagged_args,
					  ctx, packaged);
	}
#endif

	return cbpprintf_external(out, cbvprintf, ctx, packaged);
 8002320:	9b06      	ldr	r3, [sp, #24]
 8002322:	4622      	mov	r2, r4
 8002324:	494d      	ldr	r1, [pc, #308]	; (800245c <log_output_process+0x2c0>)
 8002326:	f004 fdc7 	bl	8006eb8 <cbpprintf_external>
	if (data_len) {
 800232a:	9b04      	ldr	r3, [sp, #16]
 800232c:	2b00      	cmp	r3, #0
 800232e:	d068      	beq.n	8002402 <log_output_process+0x266>
		print_formatted(output, " ");
 8002330:	f8df 8138 	ldr.w	r8, [pc, #312]	; 800246c <log_output_process+0x2d0>
			print_formatted(output, "%02x ", data[i]);
 8002334:	f8df 9138 	ldr.w	r9, [pc, #312]	; 8002470 <log_output_process+0x2d4>
		length = MIN(len, HEXDUMP_BYTES_IN_LINE);
 8002338:	9f04      	ldr	r7, [sp, #16]
	for (int i = 0; i < prefix_offset; i++) {
 800233a:	f04f 0b00 	mov.w	fp, #0
	newline_print(output, flags);
 800233e:	4631      	mov	r1, r6
 8002340:	4620      	mov	r0, r4
		length = MIN(len, HEXDUMP_BYTES_IN_LINE);
 8002342:	2f10      	cmp	r7, #16
 8002344:	bf28      	it	cs
 8002346:	2710      	movcs	r7, #16
	newline_print(output, flags);
 8002348:	f7ff ff1a 	bl	8002180 <newline_print>
	for (int i = 0; i < prefix_offset; i++) {
 800234c:	455d      	cmp	r5, fp
 800234e:	dc45      	bgt.n	80023dc <log_output_process+0x240>
			print_formatted(output, "%02x ", data[i]);
 8002350:	9b05      	ldr	r3, [sp, #20]
	for (int i = 0; i < HEXDUMP_BYTES_IN_LINE; i++) {
 8002352:	f04f 0b01 	mov.w	fp, #1
			print_formatted(output, "%02x ", data[i]);
 8002356:	4649      	mov	r1, r9
 8002358:	4620      	mov	r0, r4
 800235a:	781a      	ldrb	r2, [r3, #0]
 800235c:	f7ff fefe 	bl	800215c <print_formatted>
		if (i > 0 && !(i % 8)) {
 8002360:	f01b 0f07 	tst.w	fp, #7
 8002364:	d103      	bne.n	800236e <log_output_process+0x1d2>
			print_formatted(output, " ");
 8002366:	4641      	mov	r1, r8
 8002368:	4620      	mov	r0, r4
 800236a:	f7ff fef7 	bl	800215c <print_formatted>
		if (i < length) {
 800236e:	455f      	cmp	r7, fp
 8002370:	d93b      	bls.n	80023ea <log_output_process+0x24e>
			print_formatted(output, "%02x ", data[i]);
 8002372:	9b05      	ldr	r3, [sp, #20]
 8002374:	4649      	mov	r1, r9
 8002376:	4620      	mov	r0, r4
 8002378:	f813 200b 	ldrb.w	r2, [r3, fp]
 800237c:	f7ff feee 	bl	800215c <print_formatted>
	for (int i = 0; i < HEXDUMP_BYTES_IN_LINE; i++) {
 8002380:	f10b 0b01 	add.w	fp, fp, #1
 8002384:	f1bb 0f10 	cmp.w	fp, #16
 8002388:	d1ea      	bne.n	8002360 <log_output_process+0x1c4>
	for (int i = 0; i < HEXDUMP_BYTES_IN_LINE; i++) {
 800238a:	f04f 0b00 	mov.w	fp, #0
	print_formatted(output, "|");
 800238e:	4934      	ldr	r1, [pc, #208]	; (8002460 <log_output_process+0x2c4>)
 8002390:	4620      	mov	r0, r4
 8002392:	f7ff fee3 	bl	800215c <print_formatted>
		if (i < length) {
 8002396:	465a      	mov	r2, fp
			unsigned char c = (unsigned char)data[i];
 8002398:	9b05      	ldr	r3, [sp, #20]
			print_formatted(output, "%c",
 800239a:	4620      	mov	r0, r4
			unsigned char c = (unsigned char)data[i];
 800239c:	5c9a      	ldrb	r2, [r3, r2]
    return 'a' <= c && c <= 'z';
}

__declare_extern_inline(int) isprint (int c)
{
    return ' ' <= c && c <= '~';
 800239e:	f1a2 0120 	sub.w	r1, r2, #32
			print_formatted(output, "%c",
 80023a2:	295f      	cmp	r1, #95	; 0x5f
 80023a4:	492f      	ldr	r1, [pc, #188]	; (8002464 <log_output_process+0x2c8>)
 80023a6:	bf28      	it	cs
 80023a8:	222e      	movcs	r2, #46	; 0x2e
 80023aa:	f7ff fed7 	bl	800215c <print_formatted>
	for (int i = 0; i < HEXDUMP_BYTES_IN_LINE; i++) {
 80023ae:	f10b 0b01 	add.w	fp, fp, #1
 80023b2:	f1bb 0f10 	cmp.w	fp, #16
 80023b6:	d01d      	beq.n	80023f4 <log_output_process+0x258>
		if (i > 0 && !(i % 8)) {
 80023b8:	f01b 0f07 	tst.w	fp, #7
 80023bc:	d103      	bne.n	80023c6 <log_output_process+0x22a>
			print_formatted(output, " ");
 80023be:	4641      	mov	r1, r8
 80023c0:	4620      	mov	r0, r4
 80023c2:	f7ff fecb 	bl	800215c <print_formatted>
		if (i < length) {
 80023c6:	455f      	cmp	r7, fp
 80023c8:	465a      	mov	r2, fp
 80023ca:	d8e5      	bhi.n	8002398 <log_output_process+0x1fc>
			print_formatted(output, " ");
 80023cc:	4641      	mov	r1, r8
 80023ce:	4620      	mov	r0, r4
 80023d0:	f7ff fec4 	bl	800215c <print_formatted>
 80023d4:	e7eb      	b.n	80023ae <log_output_process+0x212>
		cb = ((uintptr_t)source == 1) ? out_func : cr_out_func;
 80023d6:	4820      	ldr	r0, [pc, #128]	; (8002458 <log_output_process+0x2bc>)
		prefix_offset = 0;
 80023d8:	4655      	mov	r5, sl
 80023da:	e7a1      	b.n	8002320 <log_output_process+0x184>
		print_formatted(output, " ");
 80023dc:	4641      	mov	r1, r8
 80023de:	4620      	mov	r0, r4
	for (int i = 0; i < prefix_offset; i++) {
 80023e0:	f10b 0b01 	add.w	fp, fp, #1
		print_formatted(output, " ");
 80023e4:	f7ff feba 	bl	800215c <print_formatted>
	for (int i = 0; i < prefix_offset; i++) {
 80023e8:	e7b0      	b.n	800234c <log_output_process+0x1b0>
			print_formatted(output, "   ");
 80023ea:	491f      	ldr	r1, [pc, #124]	; (8002468 <log_output_process+0x2cc>)
 80023ec:	4620      	mov	r0, r4
 80023ee:	f7ff feb5 	bl	800215c <print_formatted>
 80023f2:	e7c5      	b.n	8002380 <log_output_process+0x1e4>
		data += length;
 80023f4:	9b05      	ldr	r3, [sp, #20]
 80023f6:	443b      	add	r3, r7
 80023f8:	9305      	str	r3, [sp, #20]
	} while (len);
 80023fa:	9b04      	ldr	r3, [sp, #16]
 80023fc:	1bdb      	subs	r3, r3, r7
 80023fe:	9304      	str	r3, [sp, #16]
 8002400:	d19a      	bne.n	8002338 <log_output_process+0x19c>
		log_msg_hexdump(output, (uint8_t *)data, data_len, prefix_offset, flags);
	}

	if (!raw_string) {
 8002402:	f1ba 0f00 	cmp.w	sl, #0
 8002406:	f47f af21 	bne.w	800224c <log_output_process+0xb0>
		postfix_print(output, flags, level);
	}

	log_output_flush(output);
 800240a:	4620      	mov	r0, r4
}
 800240c:	b00b      	add	sp, #44	; 0x2c
 800240e:	e8bd 4ff0 	ldmia.w	sp!, {r4, r5, r6, r7, r8, r9, sl, fp, lr}
	log_output_flush(output);
 8002412:	f005 b8e8 	b.w	80075e6 <log_output_flush>
		print_formatted(output, "%s", log_color);
 8002416:	4a07      	ldr	r2, [pc, #28]	; (8002434 <log_output_process+0x298>)
 8002418:	4620      	mov	r0, r4
 800241a:	4905      	ldr	r1, [pc, #20]	; (8002430 <log_output_process+0x294>)
 800241c:	f7ff fe9e 	bl	800215c <print_formatted>
}
 8002420:	e717      	b.n	8002252 <log_output_process+0xb6>
 8002422:	bf00      	nop
 8002424:	0800a0ce 	.word	0x0800a0ce
 8002428:	0800a0d2 	.word	0x0800a0d2
 800242c:	08009264 	.word	0x08009264
 8002430:	08009f4e 	.word	0x08009f4e
 8002434:	0800a0c9 	.word	0x0800a0c9
 8002438:	0800a0f7 	.word	0x0800a0f7
 800243c:	24000e50 	.word	0x24000e50
 8002440:	24000e4c 	.word	0x24000e4c
 8002444:	0800a0db 	.word	0x0800a0db
 8002448:	08009278 	.word	0x08009278
 800244c:	0800a0fb 	.word	0x0800a0fb
 8002450:	0800a101 	.word	0x0800a101
 8002454:	08007637 	.word	0x08007637
 8002458:	08007601 	.word	0x08007601
 800245c:	08003289 	.word	0x08003289
 8002460:	0800a110 	.word	0x0800a110
 8002464:	0800a112 	.word	0x0800a112
 8002468:	0800a10c 	.word	0x0800a10c
 800246c:	0800a10e 	.word	0x0800a10e
 8002470:	0800a106 	.word	0x0800a106

08002474 <log_output_dropped_process>:
	static const char postfix[] =
			" messages dropped ---\r\n" DROPPED_COLOR_POSTFIX;
	log_output_func_t outf = output->func;

	cnt = MIN(cnt, 9999);
	len = snprintk(buf, sizeof(buf), "%d", cnt);
 8002474:	f242 730f 	movw	r3, #9999	; 0x270f
 8002478:	4a11      	ldr	r2, [pc, #68]	; (80024c0 <log_output_dropped_process+0x4c>)
 800247a:	428b      	cmp	r3, r1
{
 800247c:	b573      	push	{r0, r1, r4, r5, r6, lr}
 800247e:	4604      	mov	r4, r0
	len = snprintk(buf, sizeof(buf), "%d", cnt);
 8002480:	bf28      	it	cs
 8002482:	460b      	movcs	r3, r1
	log_output_func_t outf = output->func;
 8002484:	6805      	ldr	r5, [r0, #0]
	len = snprintk(buf, sizeof(buf), "%d", cnt);
 8002486:	2105      	movs	r1, #5
 8002488:	4668      	mov	r0, sp
 800248a:	f003 fa5b 	bl	8005944 <snprintf>

	log_output_write(outf, (uint8_t *)prefix, sizeof(prefix) - 1, output->control_block->ctx);
 800248e:	6863      	ldr	r3, [r4, #4]
	len = snprintk(buf, sizeof(buf), "%d", cnt);
 8002490:	4606      	mov	r6, r0
	log_output_write(outf, (uint8_t *)prefix, sizeof(prefix) - 1, output->control_block->ctx);
 8002492:	220b      	movs	r2, #11
 8002494:	4628      	mov	r0, r5
 8002496:	685b      	ldr	r3, [r3, #4]
 8002498:	490a      	ldr	r1, [pc, #40]	; (80024c4 <log_output_dropped_process+0x50>)
 800249a:	f005 f896 	bl	80075ca <log_output_write>
	log_output_write(outf, buf, len, output->control_block->ctx);
 800249e:	6863      	ldr	r3, [r4, #4]
 80024a0:	4632      	mov	r2, r6
 80024a2:	4669      	mov	r1, sp
 80024a4:	4628      	mov	r0, r5
 80024a6:	685b      	ldr	r3, [r3, #4]
 80024a8:	f005 f88f 	bl	80075ca <log_output_write>
	log_output_write(outf, (uint8_t *)postfix, sizeof(postfix) - 1, output->control_block->ctx);
 80024ac:	6863      	ldr	r3, [r4, #4]
 80024ae:	221b      	movs	r2, #27
 80024b0:	4905      	ldr	r1, [pc, #20]	; (80024c8 <log_output_dropped_process+0x54>)
 80024b2:	685b      	ldr	r3, [r3, #4]
 80024b4:	4628      	mov	r0, r5
 80024b6:	f005 f888 	bl	80075ca <log_output_write>
}
 80024ba:	b002      	add	sp, #8
 80024bc:	bd70      	pop	{r4, r5, r6, pc}
 80024be:	bf00      	nop
 80024c0:	0800a27a 	.word	0x0800a27a
 80024c4:	0800a131 	.word	0x0800a131
 80024c8:	0800a115 	.word	0x0800a115

080024cc <log_output_timestamp_freq_set>:
{
	timestamp_div = 1U;
	/* There is no point to have frequency higher than 1MHz (ns are not
	 * printed) and too high frequency leads to overflows in calculations.
	 */
	while (frequency > 1000000) {
 80024cc:	2100      	movs	r1, #0
 80024ce:	2301      	movs	r3, #1
 80024d0:	4a06      	ldr	r2, [pc, #24]	; (80024ec <log_output_timestamp_freq_set+0x20>)
 80024d2:	4290      	cmp	r0, r2
 80024d4:	d806      	bhi.n	80024e4 <log_output_timestamp_freq_set+0x18>
 80024d6:	4a06      	ldr	r2, [pc, #24]	; (80024f0 <log_output_timestamp_freq_set+0x24>)
 80024d8:	b901      	cbnz	r1, 80024dc <log_output_timestamp_freq_set+0x10>
	timestamp_div = 1U;
 80024da:	2301      	movs	r3, #1
 80024dc:	6013      	str	r3, [r2, #0]
		frequency /= 2U;
		timestamp_div *= 2U;
	}

	freq = frequency;
 80024de:	4b05      	ldr	r3, [pc, #20]	; (80024f4 <log_output_timestamp_freq_set+0x28>)
 80024e0:	6018      	str	r0, [r3, #0]
}
 80024e2:	4770      	bx	lr
		frequency /= 2U;
 80024e4:	0840      	lsrs	r0, r0, #1
		timestamp_div *= 2U;
 80024e6:	2101      	movs	r1, #1
 80024e8:	005b      	lsls	r3, r3, #1
 80024ea:	e7f2      	b.n	80024d2 <log_output_timestamp_freq_set+0x6>
 80024ec:	000f4240 	.word	0x000f4240
 80024f0:	24000e4c 	.word	0x24000e4c
 80024f4:	24000e50 	.word	0x24000e50

080024f8 <log_backend_rtt_init>:
{
	if (CONFIG_LOG_BACKEND_RTT_BUFFER > 0) {
		log_backend_rtt_cfg();
	}

	host_present = true;
 80024f8:	4b01      	ldr	r3, [pc, #4]	; (8002500 <log_backend_rtt_init+0x8>)
 80024fa:	2201      	movs	r2, #1
 80024fc:	701a      	strb	r2, [r3, #0]
	line_pos = line_buf;
}
 80024fe:	4770      	bx	lr
 8002500:	24001026 	.word	0x24001026

08002504 <format_set>:
	log_output_func(&log_output_rtt, &msg->log, flags);
}

static int format_set(const struct log_backend *const backend, uint32_t log_type)
{
	log_format_current = log_type;
 8002504:	4b01      	ldr	r3, [pc, #4]	; (800250c <format_set+0x8>)
	return 0;
}
 8002506:	2000      	movs	r0, #0
	log_format_current = log_type;
 8002508:	6019      	str	r1, [r3, #0]
}
 800250a:	4770      	bx	lr
 800250c:	24000e68 	.word	0x24000e68

08002510 <dropped>:
 * @param cnt		Number of dropped messages.
 */
static inline void
log_backend_std_dropped(const struct log_output *const output, uint32_t cnt)
{
	log_output_dropped_process(output, cnt);
 8002510:	4801      	ldr	r0, [pc, #4]	; (8002518 <dropped+0x8>)
 8002512:	f7ff bfaf 	b.w	8002474 <log_output_dropped_process>
 8002516:	bf00      	nop
 8002518:	080092a8 	.word	0x080092a8

0800251c <process>:
	log_format_func_t log_output_func = log_format_func_t_get(log_format_current);
 800251c:	4b06      	ldr	r3, [pc, #24]	; (8002538 <process+0x1c>)
{
 800251e:	b510      	push	{r4, lr}
 8002520:	460c      	mov	r4, r1
	log_format_func_t log_output_func = log_format_func_t_get(log_format_current);
 8002522:	6818      	ldr	r0, [r3, #0]
 8002524:	f7ff fb5c 	bl	8001be0 <log_format_func_t_get>
	log_output_func(&log_output_rtt, &msg->log, flags);
 8002528:	220f      	movs	r2, #15
	log_format_func_t log_output_func = log_format_func_t_get(log_format_current);
 800252a:	4603      	mov	r3, r0
	log_output_func(&log_output_rtt, &msg->log, flags);
 800252c:	4621      	mov	r1, r4
 800252e:	4803      	ldr	r0, [pc, #12]	; (800253c <process+0x20>)
}
 8002530:	e8bd 4010 	ldmia.w	sp!, {r4, lr}
	log_output_func(&log_output_rtt, &msg->log, flags);
 8002534:	4718      	bx	r3
 8002536:	bf00      	nop
 8002538:	24000e68 	.word	0x24000e68
 800253c:	080092a8 	.word	0x080092a8

08002540 <panic>:
{
 8002540:	b5f8      	push	{r3, r4, r5, r6, r7, lr}
 *
 * @param output Pointer to the log output instance.
 */
static inline void log_output_flush(const struct log_output *output)
{
	log_output_write(output->func, output->buf, output->control_block->offset,
 8002542:	4d09      	ldr	r5, [pc, #36]	; (8002568 <panic+0x28>)
	panic_mode = true;
 8002544:	2201      	movs	r2, #1
 8002546:	4b09      	ldr	r3, [pc, #36]	; (800256c <panic+0x2c>)
 8002548:	4e09      	ldr	r6, [pc, #36]	; (8002570 <panic+0x30>)
 800254a:	701a      	strb	r2, [r3, #0]
 800254c:	e9d5 4700 	ldrd	r4, r7, [r5]
	while (len != 0) {
 8002550:	b90c      	cbnz	r4, 8002556 <panic+0x16>
			 output->control_block->ctx);
	output->control_block->offset = 0;
 8002552:	602c      	str	r4, [r5, #0]
}
 8002554:	bdf8      	pop	{r3, r4, r5, r6, r7, pc}
		processed = outf(buf, len, ctx);
 8002556:	4621      	mov	r1, r4
 8002558:	4630      	mov	r0, r6
 800255a:	463a      	mov	r2, r7
 800255c:	f000 f81e 	bl	800259c <data_out_block_mode>
		len -= processed;
 8002560:	1a24      	subs	r4, r4, r0
		buf += processed;
 8002562:	4406      	add	r6, r0
 8002564:	e7f4      	b.n	8002550 <panic+0x10>
 8002566:	bf00      	nop
 8002568:	24000e5c 	.word	0x24000e5c
 800256c:	24001027 	.word	0x24001027
 8002570:	24001028 	.word	0x24001028

08002574 <on_failed_write>:
	if (retry_cnt == 0) {
 8002574:	b910      	cbnz	r0, 800257c <on_failed_write+0x8>
		host_present = false;
 8002576:	4b07      	ldr	r3, [pc, #28]	; (8002594 <on_failed_write+0x20>)
 8002578:	7018      	strb	r0, [r3, #0]
}
 800257a:	4770      	bx	lr
	return IS_ENABLED(CONFIG_LOG_MODE_IMMEDIATE) || panic_mode;
 800257c:	4b06      	ldr	r3, [pc, #24]	; (8002598 <on_failed_write+0x24>)
	} else if (is_sync_mode()) {
 800257e:	781b      	ldrb	r3, [r3, #0]
 8002580:	b11b      	cbz	r3, 800258a <on_failed_write+0x16>
	z_impl_k_busy_wait(usec_to_wait);
 8002582:	f241 3088 	movw	r0, #5000	; 0x1388
 8002586:	f005 bc1a 	b.w	8007dbe <z_impl_k_busy_wait>
	return z_impl_k_sleep(timeout);
 800258a:	2032      	movs	r0, #50	; 0x32
 800258c:	2100      	movs	r1, #0
 800258e:	f005 bd09 	b.w	8007fa4 <z_impl_k_sleep>
 8002592:	bf00      	nop
 8002594:	24001026 	.word	0x24001026
 8002598:	24001027 	.word	0x24001027

0800259c <data_out_block_mode>:
{
 800259c:	e92d 47f0 	stmdb	sp!, {r4, r5, r6, r7, r8, r9, sl, lr}
 80025a0:	4680      	mov	r8, r0
 80025a2:	460e      	mov	r6, r1
	int retry_cnt = IS_ENABLED(CONFIG_LOG_BACKEND_RTT_MODE_BLOCK) ?
 80025a4:	2404      	movs	r4, #4
	return IS_ENABLED(CONFIG_LOG_MODE_IMMEDIATE) || panic_mode;
 80025a6:	f8df 9078 	ldr.w	r9, [pc, #120]	; 8002620 <data_out_block_mode+0x84>
 80025aa:	4f1c      	ldr	r7, [pc, #112]	; (800261c <data_out_block_mode+0x80>)
		if (!is_sync_mode()) {
 80025ac:	f899 5000 	ldrb.w	r5, [r9]
 80025b0:	b9a5      	cbnz	r5, 80025dc <data_out_block_mode+0x40>
			RTT_LOCK();
 80025b2:	f005 fbf7 	bl	8007da4 <zephyr_rtt_irq_lock>
 80025b6:	4682      	mov	sl, r0
			ret = SEGGER_RTT_WriteSkipNoLock(CONFIG_LOG_BACKEND_RTT_BUFFER,
 80025b8:	4632      	mov	r2, r6
 80025ba:	4628      	mov	r0, r5
 80025bc:	4641      	mov	r1, r8
 80025be:	f002 f9ab 	bl	8004918 <SEGGER_RTT_WriteSkipNoLock>
 80025c2:	4605      	mov	r5, r0
			RTT_UNLOCK();
 80025c4:	4650      	mov	r0, sl
 80025c6:	f005 fbf5 	bl	8007db4 <zephyr_rtt_irq_unlock>
		if (ret) {
 80025ca:	b1e5      	cbz	r5, 8002606 <data_out_block_mode+0x6a>
	host_present = true;
 80025cc:	2301      	movs	r3, #1
 80025ce:	703b      	strb	r3, [r7, #0]
	if (is_panic_mode()) {
 80025d0:	f899 3000 	ldrb.w	r3, [r9]
 80025d4:	b973      	cbnz	r3, 80025f4 <data_out_block_mode+0x58>
}
 80025d6:	4630      	mov	r0, r6
 80025d8:	e8bd 87f0 	ldmia.w	sp!, {r4, r5, r6, r7, r8, r9, sl, pc}
			ret = SEGGER_RTT_WriteSkipNoLock(CONFIG_LOG_BACKEND_RTT_BUFFER,
 80025dc:	4632      	mov	r2, r6
 80025de:	4641      	mov	r1, r8
 80025e0:	2000      	movs	r0, #0
 80025e2:	f002 f999 	bl	8004918 <SEGGER_RTT_WriteSkipNoLock>
 80025e6:	4605      	mov	r5, r0
 80025e8:	e7ef      	b.n	80025ca <data_out_block_mode+0x2e>
			on_failed_write(retry_cnt--);
 80025ea:	1e65      	subs	r5, r4, #1
 80025ec:	4620      	mov	r0, r4
 80025ee:	f7ff ffc1 	bl	8002574 <on_failed_write>
 80025f2:	462c      	mov	r4, r5
		while (SEGGER_RTT_HasDataUp(CONFIG_LOG_BACKEND_RTT_BUFFER) &&
 80025f4:	2000      	movs	r0, #0
 80025f6:	f002 f9d3 	bl	80049a0 <SEGGER_RTT_HasDataUp>
 80025fa:	2800      	cmp	r0, #0
 80025fc:	d0eb      	beq.n	80025d6 <data_out_block_mode+0x3a>
 80025fe:	783b      	ldrb	r3, [r7, #0]
 8002600:	2b00      	cmp	r3, #0
 8002602:	d1f2      	bne.n	80025ea <data_out_block_mode+0x4e>
 8002604:	e7e7      	b.n	80025d6 <data_out_block_mode+0x3a>
		} else if (host_present) {
 8002606:	783b      	ldrb	r3, [r7, #0]
 8002608:	2b00      	cmp	r3, #0
 800260a:	d0e4      	beq.n	80025d6 <data_out_block_mode+0x3a>
			retry_cnt--;
 800260c:	3c01      	subs	r4, #1
			on_failed_write(retry_cnt);
 800260e:	4620      	mov	r0, r4
 8002610:	f7ff ffb0 	bl	8002574 <on_failed_write>
	} while ((ret == 0) && host_present);
 8002614:	783b      	ldrb	r3, [r7, #0]
 8002616:	2b00      	cmp	r3, #0
 8002618:	d1c8      	bne.n	80025ac <data_out_block_mode+0x10>
 800261a:	e7dc      	b.n	80025d6 <data_out_block_mode+0x3a>
 800261c:	24001026 	.word	0x24001026
 8002620:	24001027 	.word	0x24001027

08002624 <mem_attr_get_regions>:
	DT_MEMORY_ATTR_FOREACH_STATUS_OKAY_NODE(_BUILD_MEM_ATTR_REGION)
};

size_t mem_attr_get_regions(const struct mem_attr_region_t **region)
{
	*region = mem_attr_region;
 8002624:	4b01      	ldr	r3, [pc, #4]	; (800262c <mem_attr_get_regions+0x8>)
 8002626:	6003      	str	r3, [r0, #0]

	return ARRAY_SIZE(mem_attr_region);
}
 8002628:	2001      	movs	r0, #1
 800262a:	4770      	bx	lr
 800262c:	080092b8 	.word	0x080092b8

08002630 <z_arm_fatal_error>:
		esf->basic.pc);
}
#endif /* CONFIG_EXCEPTION_DEBUG */

void z_arm_fatal_error(unsigned int reason, const struct arch_esf *esf)
{
 8002630:	e92d 4ff8 	stmdb	sp!, {r3, r4, r5, r6, r7, r8, r9, sl, fp, lr}
 8002634:	4680      	mov	r8, r0
 8002636:	af00      	add	r7, sp, #0
#ifdef CONFIG_EXCEPTION_DEBUG
	if (esf != NULL) {
 8002638:	460c      	mov	r4, r1
 800263a:	2900      	cmp	r1, #0
 800263c:	d065      	beq.n	800270a <z_arm_fatal_error+0xda>
	LOG_ERR("r0/a1:  0x%08x  r1/a2:  0x%08x  r2/a3:  0x%08x",
 800263e:	46e9      	mov	r9, sp
 8002640:	b08a      	sub	sp, #40	; 0x28
 8002642:	68a3      	ldr	r3, [r4, #8]
 8002644:	466d      	mov	r5, sp
 8002646:	e9d1 1200 	ldrd	r1, r2, [r1]
 800264a:	4839      	ldr	r0, [pc, #228]	; (8002730 <z_arm_fatal_error+0x100>)
 800264c:	f04f 0a05 	mov.w	sl, #5
 8002650:	462e      	mov	r6, r5
 8002652:	e9c5 0105 	strd	r0, r1, [r5, #20]
 8002656:	e9c5 2307 	strd	r2, r3, [r5, #28]
 800265a:	f846 af10 	str.w	sl, [r6, #16]!
	z_impl_z_log_msg_static_create(source, desc, package, data);
 800265e:	2300      	movs	r3, #0
 8002660:	4632      	mov	r2, r6
 8002662:	f44f 5121 	mov.w	r1, #10304	; 0x2840
 8002666:	4833      	ldr	r0, [pc, #204]	; (8002734 <z_arm_fatal_error+0x104>)
 8002668:	f7ff fc98 	bl	8001f9c <z_impl_z_log_msg_static_create>
 800266c:	46cd      	mov	sp, r9
	LOG_ERR("r3/a4:  0x%08x r12/ip:  0x%08x r14/lr:  0x%08x",
 800266e:	6963      	ldr	r3, [r4, #20]
 8002670:	46ad      	mov	sp, r5
 8002672:	e9d4 1203 	ldrd	r1, r2, [r4, #12]
 8002676:	4830      	ldr	r0, [pc, #192]	; (8002738 <z_arm_fatal_error+0x108>)
 8002678:	f8c5 a010 	str.w	sl, [r5, #16]
 800267c:	e9c5 0105 	strd	r0, r1, [r5, #20]
 8002680:	e9c5 2307 	strd	r2, r3, [r5, #28]
 8002684:	2300      	movs	r3, #0
 8002686:	4632      	mov	r2, r6
 8002688:	f44f 5121 	mov.w	r1, #10304	; 0x2840
 800268c:	4829      	ldr	r0, [pc, #164]	; (8002734 <z_arm_fatal_error+0x104>)
 800268e:	f7ff fc85 	bl	8001f9c <z_impl_z_log_msg_static_create>
 8002692:	46cd      	mov	sp, r9
	LOG_ERR(" xpsr:  0x%08x", esf->basic.xpsr);
 8002694:	69e3      	ldr	r3, [r4, #28]
	for (int i = 0; i < ARRAY_SIZE(esf->fpu.s); i += 4) {
 8002696:	2500      	movs	r5, #0
 8002698:	4626      	mov	r6, r4
		LOG_ERR("s[%2d]:  0x%08x  s[%2d]:  0x%08x"
 800269a:	f8df b0b0 	ldr.w	fp, [pc, #176]	; 800274c <z_arm_fatal_error+0x11c>
 800269e:	f04f 0a0a 	mov.w	sl, #10
	z_impl_z_log_msg_simple_create_1(source, level, fmt, arg);
 80026a2:	4a26      	ldr	r2, [pc, #152]	; (800273c <z_arm_fatal_error+0x10c>)
 80026a4:	2101      	movs	r1, #1
 80026a6:	4823      	ldr	r0, [pc, #140]	; (8002734 <z_arm_fatal_error+0x104>)
 80026a8:	f004 ff85 	bl	80075b6 <z_impl_z_log_msg_simple_create_1>
 80026ac:	46e9      	mov	r9, sp
 80026ae:	b08e      	sub	sp, #56	; 0x38
 80026b0:	e9d6 e008 	ldrd	lr, r0, [r6, #32]
 80026b4:	e9d6 130a 	ldrd	r1, r3, [r6, #40]	; 0x28
 80026b8:	466a      	mov	r2, sp
 80026ba:	f8c2 e01c 	str.w	lr, [r2, #28]
 80026be:	f105 0e01 	add.w	lr, r5, #1
 80026c2:	e9c2 e008 	strd	lr, r0, [r2, #32]
 80026c6:	1ca8      	adds	r0, r5, #2
 80026c8:	e9c2 010a 	strd	r0, r1, [r2, #40]	; 0x28
 80026cc:	1ce9      	adds	r1, r5, #3
 80026ce:	e9c2 b505 	strd	fp, r5, [r2, #20]
 80026d2:	e9c2 130c 	strd	r1, r3, [r2, #48]	; 0x30
 80026d6:	f842 af10 	str.w	sl, [r2, #16]!
	for (int i = 0; i < ARRAY_SIZE(esf->fpu.s); i += 4) {
 80026da:	3504      	adds	r5, #4
	z_impl_z_log_msg_static_create(source, desc, package, data);
 80026dc:	2300      	movs	r3, #0
 80026de:	f245 0140 	movw	r1, #20544	; 0x5040
 80026e2:	4814      	ldr	r0, [pc, #80]	; (8002734 <z_arm_fatal_error+0x104>)
 80026e4:	f7ff fc5a 	bl	8001f9c <z_impl_z_log_msg_static_create>
 80026e8:	2d10      	cmp	r5, #16
 80026ea:	f106 0610 	add.w	r6, r6, #16
 80026ee:	46cd      	mov	sp, r9
 80026f0:	d1dc      	bne.n	80026ac <z_arm_fatal_error+0x7c>
	LOG_ERR("fpscr:  0x%08x", esf->fpu.fpscr);
 80026f2:	6e23      	ldr	r3, [r4, #96]	; 0x60
	z_impl_z_log_msg_simple_create_1(source, level, fmt, arg);
 80026f4:	4a12      	ldr	r2, [pc, #72]	; (8002740 <z_arm_fatal_error+0x110>)
 80026f6:	2101      	movs	r1, #1
 80026f8:	480e      	ldr	r0, [pc, #56]	; (8002734 <z_arm_fatal_error+0x104>)
 80026fa:	f004 ff5c 	bl	80075b6 <z_impl_z_log_msg_simple_create_1>
	LOG_ERR("Faulting instruction address (r15/pc): 0x%08x",
 80026fe:	69a3      	ldr	r3, [r4, #24]
 8002700:	4a10      	ldr	r2, [pc, #64]	; (8002744 <z_arm_fatal_error+0x114>)
 8002702:	2101      	movs	r1, #1
 8002704:	480b      	ldr	r0, [pc, #44]	; (8002734 <z_arm_fatal_error+0x104>)
 8002706:	f004 ff56 	bl	80075b6 <z_impl_z_log_msg_simple_create_1>
	}
#endif /* CONFIG_EXCEPTION_DEBUG */

	/* LOG the IRQn that was unhandled */
#if defined(CONFIG_CPU_CORTEX_M)
	if (reason == K_ERR_SPURIOUS_IRQ) {
 800270a:	f1b8 0f01 	cmp.w	r8, #1
 800270e:	d107      	bne.n	8002720 <z_arm_fatal_error+0xf0>
  __ASM volatile ("MRS %0, ipsr" : "=r" (result) );
 8002710:	f3ef 8305 	mrs	r3, IPSR
 8002714:	4a0c      	ldr	r2, [pc, #48]	; (8002748 <z_arm_fatal_error+0x118>)
 8002716:	3b10      	subs	r3, #16
 8002718:	4641      	mov	r1, r8
 800271a:	4806      	ldr	r0, [pc, #24]	; (8002734 <z_arm_fatal_error+0x104>)
 800271c:	f004 ff4b 	bl	80075b6 <z_impl_z_log_msg_simple_create_1>

		LOG_ERR("Unhandled IRQn: %d", irqn);
	}
#endif

	z_fatal_error(reason, esf);
 8002720:	4621      	mov	r1, r4
 8002722:	4640      	mov	r0, r8
 8002724:	f002 f96e 	bl	8004a04 <z_fatal_error>
}
 8002728:	46bd      	mov	sp, r7
 800272a:	e8bd 8ff8 	ldmia.w	sp!, {r3, r4, r5, r6, r7, r8, r9, sl, fp, pc}
 800272e:	bf00      	nop
 8002730:	0800a17d 	.word	0x0800a17d
 8002734:	08008cf4 	.word	0x08008cf4
 8002738:	0800a1ac 	.word	0x0800a1ac
 800273c:	0800a1db 	.word	0x0800a1db
 8002740:	0800a22d 	.word	0x0800a22d
 8002744:	0800a23c 	.word	0x0800a23c
 8002748:	0800a26a 	.word	0x0800a26a
 800274c:	0800a1ea 	.word	0x0800a1ea

08002750 <z_arm_nmi>:
 * Simply call what is installed in 'static void(*handler)(void)'.
 *
 */

void z_arm_nmi(void)
{
 8002750:	b508      	push	{r3, lr}
	handler();
 8002752:	4b03      	ldr	r3, [pc, #12]	; (8002760 <z_arm_nmi+0x10>)
 8002754:	681b      	ldr	r3, [r3, #0]
 8002756:	4798      	blx	r3
	z_arm_int_exit();
}
 8002758:	e8bd 4008 	ldmia.w	sp!, {r3, lr}
	z_arm_int_exit();
 800275c:	f000 b826 	b.w	80027ac <z_arm_exc_exit>
 8002760:	24000574 	.word	0x24000574

08002764 <z_SysNmiOnReset>:
_ASM_FILE_PROLOGUE

GTEXT(z_SysNmiOnReset)

SECTION_FUNC(TEXT, z_SysNmiOnReset)
    wfi
 8002764:	bf30      	wfi
    b z_SysNmiOnReset
 8002766:	f7ff bffd 	b.w	8002764 <z_SysNmiOnReset>
 800276a:	bf00      	nop

0800276c <arch_tls_stack_setup>:
 */
K_APP_DMEM(z_libc_partition) uintptr_t z_arm_tls_ptr;
#endif

size_t arch_tls_stack_setup(struct k_thread *new_thread, char *stack_ptr)
{
 800276c:	e92d 41f0 	stmdb	sp!, {r4, r5, r6, r7, r8, lr}
 *
 * @return Total size of TLS data/bss areas
 */
static inline size_t z_tls_data_size(void)
{
	return (size_t)(uintptr_t)__tdata_size +
 8002770:	4e0b      	ldr	r6, [pc, #44]	; (80027a0 <arch_tls_stack_setup+0x34>)
 8002772:	4605      	mov	r5, r0
	       (size_t)(uintptr_t)__tbss_size;
 8002774:	f8df 8030 	ldr.w	r8, [pc, #48]	; 80027a8 <arch_tls_stack_setup+0x3c>
 * @param dest Pointer to destination
 */
static inline void z_tls_copy(char *dest)
{
	/* Copy initialized data (tdata) */
	memcpy(dest, __tdata_start, (size_t)(uintptr_t)__tdata_size);
 8002778:	4632      	mov	r2, r6
	return (size_t)(uintptr_t)__tdata_size +
 800277a:	eb06 0708 	add.w	r7, r6, r8

	/*
	 * Since we are populating things backwards,
	 * setup the TLS data/bss area first.
	 */
	stack_ptr -= z_tls_data_size();
 800277e:	1bcc      	subs	r4, r1, r7
	memcpy(dest, __tdata_start, (size_t)(uintptr_t)__tdata_size);
 8002780:	4908      	ldr	r1, [pc, #32]	; (80027a4 <arch_tls_stack_setup+0x38>)
 8002782:	4620      	mov	r0, r4
 8002784:	f005 fc8f 	bl	80080a6 <memcpy>

	/* Clear BSS data (tbss) */
	dest += (size_t)(uintptr_t)__tdata_size;
	memset(dest, 0, (size_t)(uintptr_t)__tbss_size);
 8002788:	19a0      	adds	r0, r4, r6
	z_tls_copy(stack_ptr);

#ifndef __IAR_SYSTEMS_ICC__
	/* Skip two pointers due to toolchain */
	stack_ptr -= sizeof(uintptr_t) * 2;
 800278a:	3c08      	subs	r4, #8
 800278c:	4642      	mov	r2, r8
 800278e:	2100      	movs	r1, #0
 8002790:	f005 fc97 	bl	80080c2 <memset>
	 * context switch to point to TLS area.
	 */
	new_thread->tls = POINTER_TO_UINT(stack_ptr);

	return (z_tls_data_size() + (sizeof(uintptr_t) * 2));
}
 8002794:	f107 0008 	add.w	r0, r7, #8
	new_thread->tls = POINTER_TO_UINT(stack_ptr);
 8002798:	672c      	str	r4, [r5, #112]	; 0x70
}
 800279a:	e8bd 81f0 	ldmia.w	sp!, {r4, r5, r6, r7, r8, pc}
 800279e:	bf00      	nop
 80027a0:	00000000 	.word	0x00000000
 80027a4:	08008d24 	.word	0x08008d24
 80027a8:	00000004 	.word	0x00000004

080027ac <z_arm_exc_exit>:
 *
 */
Z_GENERIC_SECTION(.text._HandlerModeExit) void z_arm_exc_exit(void)
{
#ifdef CONFIG_PREEMPT_ENABLED
	if (_kernel.ready_q.cache != _kernel.cpus->current) {
 80027ac:	4b05      	ldr	r3, [pc, #20]	; (80027c4 <z_arm_exc_exit+0x18>)
 80027ae:	699a      	ldr	r2, [r3, #24]
 80027b0:	689b      	ldr	r3, [r3, #8]
 80027b2:	429a      	cmp	r2, r3
 80027b4:	d004      	beq.n	80027c0 <z_arm_exc_exit+0x14>
		SCB->ICSR |= SCB_ICSR_PENDSVSET_Msk;
 80027b6:	4a04      	ldr	r2, [pc, #16]	; (80027c8 <z_arm_exc_exit+0x1c>)
 80027b8:	6853      	ldr	r3, [r2, #4]
 80027ba:	f043 5380 	orr.w	r3, r3, #268435456	; 0x10000000
 80027be:	6053      	str	r3, [r2, #4]
#endif /* CONFIG_PREEMPT_ENABLED */

#ifdef CONFIG_STACK_SENTINEL
	z_check_stack_sentinel();
#endif /* CONFIG_STACK_SENTINEL */
}
 80027c0:	4770      	bx	lr
 80027c2:	bf00      	nop
 80027c4:	24000fec 	.word	0x24000fec
 80027c8:	e000ed00 	.word	0xe000ed00

080027cc <bus_fault.constprop.0>:
 * See z_arm_fault_dump() for example.
 *
 * @return error code to identify the fatal error reason.
 *
 */
static int bus_fault(struct arch_esf *esf, int from_hard_fault, bool *recoverable)
 80027cc:	b570      	push	{r4, r5, r6, lr}
{
	uint32_t reason = K_ERR_ARM_BUS_GENERIC;

	PR_FAULT_INFO("***** BUS FAULT *****");

	if (SCB->CFSR & SCB_CFSR_STKERR_Msk) {
 80027ce:	4c29      	ldr	r4, [pc, #164]	; (8002874 <bus_fault.constprop.0+0xa8>)
static int bus_fault(struct arch_esf *esf, int from_hard_fault, bool *recoverable)
 80027d0:	4606      	mov	r6, r0
 80027d2:	460d      	mov	r5, r1
	PR_FAULT_INFO("***** BUS FAULT *****");
 80027d4:	4828      	ldr	r0, [pc, #160]	; (8002878 <bus_fault.constprop.0+0xac>)
 80027d6:	4929      	ldr	r1, [pc, #164]	; (800287c <bus_fault.constprop.0+0xb0>)
 80027d8:	f004 ff75 	bl	80076c6 <z_log_msg_simple_create_0.constprop.0>
	if (SCB->CFSR & SCB_CFSR_STKERR_Msk) {
 80027dc:	6aa3      	ldr	r3, [r4, #40]	; 0x28
 80027de:	04d9      	lsls	r1, r3, #19
 80027e0:	d53c      	bpl.n	800285c <bus_fault.constprop.0+0x90>
		reason = K_ERR_ARM_BUS_STACKING;
		PR_FAULT_INFO("  Stacking error");
 80027e2:	4825      	ldr	r0, [pc, #148]	; (8002878 <bus_fault.constprop.0+0xac>)
 80027e4:	4926      	ldr	r1, [pc, #152]	; (8002880 <bus_fault.constprop.0+0xb4>)
 80027e6:	f004 ff6e 	bl	80076c6 <z_log_msg_simple_create_0.constprop.0>
		reason = K_ERR_ARM_BUS_STACKING;
 80027ea:	2017      	movs	r0, #23
	}
	if (SCB->CFSR & SCB_CFSR_UNSTKERR_Msk) {
 80027ec:	6aa3      	ldr	r3, [r4, #40]	; 0x28
 80027ee:	051a      	lsls	r2, r3, #20
 80027f0:	d504      	bpl.n	80027fc <bus_fault.constprop.0+0x30>
		reason = K_ERR_ARM_BUS_UNSTACKING;
		PR_FAULT_INFO("  Unstacking error");
 80027f2:	4821      	ldr	r0, [pc, #132]	; (8002878 <bus_fault.constprop.0+0xac>)
 80027f4:	4923      	ldr	r1, [pc, #140]	; (8002884 <bus_fault.constprop.0+0xb8>)
 80027f6:	f004 ff66 	bl	80076c6 <z_log_msg_simple_create_0.constprop.0>
		reason = K_ERR_ARM_BUS_UNSTACKING;
 80027fa:	2018      	movs	r0, #24
	}
	if (SCB->CFSR & SCB_CFSR_PRECISERR_Msk) {
 80027fc:	4c1d      	ldr	r4, [pc, #116]	; (8002874 <bus_fault.constprop.0+0xa8>)
 80027fe:	6aa3      	ldr	r3, [r4, #40]	; 0x28
 8002800:	059b      	lsls	r3, r3, #22
 8002802:	d512      	bpl.n	800282a <bus_fault.constprop.0+0x5e>
		reason = K_ERR_ARM_BUS_PRECISE_DATA_BUS;
		PR_FAULT_INFO("  Precise data bus error");
 8002804:	481c      	ldr	r0, [pc, #112]	; (8002878 <bus_fault.constprop.0+0xac>)
 8002806:	4920      	ldr	r1, [pc, #128]	; (8002888 <bus_fault.constprop.0+0xbc>)
 8002808:	f004 ff5d 	bl	80076c6 <z_log_msg_simple_create_0.constprop.0>
		 * The BFAR address is valid only if this bit is 1.
		 *
		 * Software must follow this sequence because another
		 * higher priority exception might change the BFAR value.
		 */
		STORE_xFAR(bfar, SCB->BFAR);
 800280c:	6ba3      	ldr	r3, [r4, #56]	; 0x38

		if ((SCB->CFSR & SCB_CFSR_BFARVALID_Msk) != 0) {
 800280e:	6aa2      	ldr	r2, [r4, #40]	; 0x28
 8002810:	0410      	lsls	r0, r2, #16
 8002812:	d509      	bpl.n	8002828 <bus_fault.constprop.0+0x5c>
 8002814:	4a1d      	ldr	r2, [pc, #116]	; (800288c <bus_fault.constprop.0+0xc0>)
 8002816:	2101      	movs	r1, #1
 8002818:	4817      	ldr	r0, [pc, #92]	; (8002878 <bus_fault.constprop.0+0xac>)
 800281a:	f004 fecc 	bl	80075b6 <z_impl_z_log_msg_simple_create_1>
			PR_EXC("  BFAR Address: 0x%x", bfar);
			if (from_hard_fault != 0) {
 800281e:	b11e      	cbz	r6, 8002828 <bus_fault.constprop.0+0x5c>
				/* clear SCB_CFSR_BFAR[VALID] to reset */
				SCB->CFSR &= ~SCB_CFSR_BFARVALID_Msk;
 8002820:	6aa3      	ldr	r3, [r4, #40]	; 0x28
 8002822:	f423 4300 	bic.w	r3, r3, #32768	; 0x8000
 8002826:	62a3      	str	r3, [r4, #40]	; 0x28
		reason = K_ERR_ARM_BUS_PRECISE_DATA_BUS;
 8002828:	2019      	movs	r0, #25
			}
		}
	}
	if (SCB->CFSR & SCB_CFSR_IMPRECISERR_Msk) {
 800282a:	4c12      	ldr	r4, [pc, #72]	; (8002874 <bus_fault.constprop.0+0xa8>)
 800282c:	6aa3      	ldr	r3, [r4, #40]	; 0x28
 800282e:	0559      	lsls	r1, r3, #21
 8002830:	d504      	bpl.n	800283c <bus_fault.constprop.0+0x70>
		reason = K_ERR_ARM_BUS_IMPRECISE_DATA_BUS;
		PR_FAULT_INFO("  Imprecise data bus error");
 8002832:	4811      	ldr	r0, [pc, #68]	; (8002878 <bus_fault.constprop.0+0xac>)
 8002834:	4916      	ldr	r1, [pc, #88]	; (8002890 <bus_fault.constprop.0+0xc4>)
 8002836:	f004 ff46 	bl	80076c6 <z_log_msg_simple_create_0.constprop.0>
		reason = K_ERR_ARM_BUS_IMPRECISE_DATA_BUS;
 800283a:	201a      	movs	r0, #26
	}
	if ((SCB->CFSR & SCB_CFSR_IBUSERR_Msk) != 0) {
 800283c:	6aa3      	ldr	r3, [r4, #40]	; 0x28
 800283e:	05da      	lsls	r2, r3, #23
 8002840:	d50e      	bpl.n	8002860 <bus_fault.constprop.0+0x94>
		reason = K_ERR_ARM_BUS_INSTRUCTION_BUS;
		PR_FAULT_INFO("  Instruction bus error");
 8002842:	480d      	ldr	r0, [pc, #52]	; (8002878 <bus_fault.constprop.0+0xac>)
 8002844:	4913      	ldr	r1, [pc, #76]	; (8002894 <bus_fault.constprop.0+0xc8>)
 8002846:	f004 ff3e 	bl	80076c6 <z_log_msg_simple_create_0.constprop.0>
		reason = K_ERR_ARM_BUS_INSTRUCTION_BUS;
 800284a:	201b      	movs	r0, #27
		SYSMPU->CESR &= ~sperr;
	}
#endif /* defined(CONFIG_ARM_MPU) && defined(CONFIG_CPU_HAS_NXP_SYSMPU) */

	/* clear BFSR sticky bits */
	SCB->CFSR |= SCB_CFSR_BUSFAULTSR_Msk;
 800284c:	4a09      	ldr	r2, [pc, #36]	; (8002874 <bus_fault.constprop.0+0xa8>)
 800284e:	6a93      	ldr	r3, [r2, #40]	; 0x28
 8002850:	f443 437f 	orr.w	r3, r3, #65280	; 0xff00
 8002854:	6293      	str	r3, [r2, #40]	; 0x28

	*recoverable = memory_fault_recoverable(esf, true);
 8002856:	2300      	movs	r3, #0
 8002858:	702b      	strb	r3, [r5, #0]

	return reason;
}
 800285a:	bd70      	pop	{r4, r5, r6, pc}
	uint32_t reason = K_ERR_ARM_BUS_GENERIC;
 800285c:	2016      	movs	r0, #22
 800285e:	e7c5      	b.n	80027ec <bus_fault.constprop.0+0x20>
	} else if (SCB->CFSR & SCB_CFSR_LSPERR_Msk) {
 8002860:	6aa3      	ldr	r3, [r4, #40]	; 0x28
 8002862:	049b      	lsls	r3, r3, #18
 8002864:	d5f2      	bpl.n	800284c <bus_fault.constprop.0+0x80>
		PR_FAULT_INFO("  Floating-point lazy state preservation error");
 8002866:	4804      	ldr	r0, [pc, #16]	; (8002878 <bus_fault.constprop.0+0xac>)
 8002868:	490b      	ldr	r1, [pc, #44]	; (8002898 <bus_fault.constprop.0+0xcc>)
 800286a:	f004 ff2c 	bl	80076c6 <z_log_msg_simple_create_0.constprop.0>
		reason = K_ERR_ARM_BUS_FP_LAZY_STATE_PRESERVATION;
 800286e:	201c      	movs	r0, #28
		PR_FAULT_INFO("  Floating-point lazy state preservation error");
 8002870:	e7ec      	b.n	800284c <bus_fault.constprop.0+0x80>
 8002872:	bf00      	nop
 8002874:	e000ed00 	.word	0xe000ed00
 8002878:	08008cf4 	.word	0x08008cf4
 800287c:	0800a27d 	.word	0x0800a27d
 8002880:	0800a293 	.word	0x0800a293
 8002884:	0800a2a4 	.word	0x0800a2a4
 8002888:	0800a2b7 	.word	0x0800a2b7
 800288c:	0800a2d0 	.word	0x0800a2d0
 8002890:	0800a2e5 	.word	0x0800a2e5
 8002894:	0800a300 	.word	0x0800a300
 8002898:	0800a318 	.word	0x0800a318

0800289c <usage_fault.constprop.0>:
 *
 * See z_arm_fault_dump() for example.
 *
 * @return error code to identify the fatal error reason
 */
static uint32_t usage_fault(const struct arch_esf *esf)
 800289c:	b510      	push	{r4, lr}
	uint32_t reason = K_ERR_ARM_USAGE_GENERIC;

	PR_FAULT_INFO("***** USAGE FAULT *****");

	/* bits are sticky: they stack and must be reset */
	if ((SCB->CFSR & SCB_CFSR_DIVBYZERO_Msk) != 0) {
 800289e:	4c20      	ldr	r4, [pc, #128]	; (8002920 <usage_fault.constprop.0+0x84>)
	PR_FAULT_INFO("***** USAGE FAULT *****");
 80028a0:	4920      	ldr	r1, [pc, #128]	; (8002924 <usage_fault.constprop.0+0x88>)
 80028a2:	4821      	ldr	r0, [pc, #132]	; (8002928 <usage_fault.constprop.0+0x8c>)
 80028a4:	f004 ff0f 	bl	80076c6 <z_log_msg_simple_create_0.constprop.0>
	if ((SCB->CFSR & SCB_CFSR_DIVBYZERO_Msk) != 0) {
 80028a8:	6aa3      	ldr	r3, [r4, #40]	; 0x28
 80028aa:	0199      	lsls	r1, r3, #6
 80028ac:	d536      	bpl.n	800291c <usage_fault.constprop.0+0x80>
		reason = K_ERR_ARM_USAGE_DIV_0;
		PR_FAULT_INFO("  Division by zero");
 80028ae:	481e      	ldr	r0, [pc, #120]	; (8002928 <usage_fault.constprop.0+0x8c>)
 80028b0:	491e      	ldr	r1, [pc, #120]	; (800292c <usage_fault.constprop.0+0x90>)
 80028b2:	f004 ff08 	bl	80076c6 <z_log_msg_simple_create_0.constprop.0>
		reason = K_ERR_ARM_USAGE_DIV_0;
 80028b6:	201e      	movs	r0, #30
	}
	if ((SCB->CFSR & SCB_CFSR_UNALIGNED_Msk) != 0) {
 80028b8:	6aa3      	ldr	r3, [r4, #40]	; 0x28
 80028ba:	01da      	lsls	r2, r3, #7
 80028bc:	d504      	bpl.n	80028c8 <usage_fault.constprop.0+0x2c>
		reason = K_ERR_ARM_USAGE_UNALIGNED_ACCESS;
		PR_FAULT_INFO("  Unaligned memory access");
 80028be:	481a      	ldr	r0, [pc, #104]	; (8002928 <usage_fault.constprop.0+0x8c>)
 80028c0:	491b      	ldr	r1, [pc, #108]	; (8002930 <usage_fault.constprop.0+0x94>)
 80028c2:	f004 ff00 	bl	80076c6 <z_log_msg_simple_create_0.constprop.0>
		reason = K_ERR_ARM_USAGE_UNALIGNED_ACCESS;
 80028c6:	201f      	movs	r0, #31
		 */
		reason = K_ERR_STACK_CHK_FAIL;
#endif /* CONFIG_BUILTIN_STACK_GUARD */
	}
#endif /* CONFIG_ARMV8_M_MAINLINE */
	if ((SCB->CFSR & SCB_CFSR_NOCP_Msk) != 0) {
 80028c8:	4c15      	ldr	r4, [pc, #84]	; (8002920 <usage_fault.constprop.0+0x84>)
 80028ca:	6aa3      	ldr	r3, [r4, #40]	; 0x28
 80028cc:	031b      	lsls	r3, r3, #12
 80028ce:	d504      	bpl.n	80028da <usage_fault.constprop.0+0x3e>
		reason = K_ERR_ARM_USAGE_NO_COPROCESSOR;
		PR_FAULT_INFO("  No coprocessor instructions");
 80028d0:	4815      	ldr	r0, [pc, #84]	; (8002928 <usage_fault.constprop.0+0x8c>)
 80028d2:	4918      	ldr	r1, [pc, #96]	; (8002934 <usage_fault.constprop.0+0x98>)
 80028d4:	f004 fef7 	bl	80076c6 <z_log_msg_simple_create_0.constprop.0>
		reason = K_ERR_ARM_USAGE_NO_COPROCESSOR;
 80028d8:	2021      	movs	r0, #33	; 0x21
	}
	if ((SCB->CFSR & SCB_CFSR_INVPC_Msk) != 0) {
 80028da:	6aa3      	ldr	r3, [r4, #40]	; 0x28
 80028dc:	0359      	lsls	r1, r3, #13
 80028de:	d504      	bpl.n	80028ea <usage_fault.constprop.0+0x4e>
		reason = K_ERR_ARM_USAGE_ILLEGAL_EXC_RETURN;
		PR_FAULT_INFO("  Illegal load of EXC_RETURN into PC");
 80028e0:	4811      	ldr	r0, [pc, #68]	; (8002928 <usage_fault.constprop.0+0x8c>)
 80028e2:	4915      	ldr	r1, [pc, #84]	; (8002938 <usage_fault.constprop.0+0x9c>)
 80028e4:	f004 feef 	bl	80076c6 <z_log_msg_simple_create_0.constprop.0>
		reason = K_ERR_ARM_USAGE_ILLEGAL_EXC_RETURN;
 80028e8:	2022      	movs	r0, #34	; 0x22
	}
	if ((SCB->CFSR & SCB_CFSR_INVSTATE_Msk) != 0) {
 80028ea:	4c0d      	ldr	r4, [pc, #52]	; (8002920 <usage_fault.constprop.0+0x84>)
 80028ec:	6aa3      	ldr	r3, [r4, #40]	; 0x28
 80028ee:	039a      	lsls	r2, r3, #14
 80028f0:	d504      	bpl.n	80028fc <usage_fault.constprop.0+0x60>
		reason = K_ERR_ARM_USAGE_ILLEGAL_EPSR;
		PR_FAULT_INFO("  Illegal use of the EPSR");
 80028f2:	480d      	ldr	r0, [pc, #52]	; (8002928 <usage_fault.constprop.0+0x8c>)
 80028f4:	4911      	ldr	r1, [pc, #68]	; (800293c <usage_fault.constprop.0+0xa0>)
 80028f6:	f004 fee6 	bl	80076c6 <z_log_msg_simple_create_0.constprop.0>
		reason = K_ERR_ARM_USAGE_ILLEGAL_EPSR;
 80028fa:	2023      	movs	r0, #35	; 0x23
	}
	if ((SCB->CFSR & SCB_CFSR_UNDEFINSTR_Msk) != 0) {
 80028fc:	6aa3      	ldr	r3, [r4, #40]	; 0x28
 80028fe:	03db      	lsls	r3, r3, #15
 8002900:	d504      	bpl.n	800290c <usage_fault.constprop.0+0x70>
		reason = K_ERR_ARM_USAGE_UNDEFINED_INSTRUCTION;
		PR_FAULT_INFO("  Attempt to execute undefined instruction");
 8002902:	4809      	ldr	r0, [pc, #36]	; (8002928 <usage_fault.constprop.0+0x8c>)
 8002904:	490e      	ldr	r1, [pc, #56]	; (8002940 <usage_fault.constprop.0+0xa4>)
 8002906:	f004 fede 	bl	80076c6 <z_log_msg_simple_create_0.constprop.0>
		reason = K_ERR_ARM_USAGE_UNDEFINED_INSTRUCTION;
 800290a:	2024      	movs	r0, #36	; 0x24
	}

	/* clear UFSR sticky bits */
	SCB->CFSR |= SCB_CFSR_USGFAULTSR_Msk;
 800290c:	4a04      	ldr	r2, [pc, #16]	; (8002920 <usage_fault.constprop.0+0x84>)
 800290e:	6a93      	ldr	r3, [r2, #40]	; 0x28
 8002910:	ea6f 4303 	mvn.w	r3, r3, lsl #16
 8002914:	ea6f 4313 	mvn.w	r3, r3, lsr #16
 8002918:	6293      	str	r3, [r2, #40]	; 0x28

	return reason;
}
 800291a:	bd10      	pop	{r4, pc}
	uint32_t reason = K_ERR_ARM_USAGE_GENERIC;
 800291c:	201d      	movs	r0, #29
 800291e:	e7cb      	b.n	80028b8 <usage_fault.constprop.0+0x1c>
 8002920:	e000ed00 	.word	0xe000ed00
 8002924:	0800a347 	.word	0x0800a347
 8002928:	08008cf4 	.word	0x08008cf4
 800292c:	0800a35f 	.word	0x0800a35f
 8002930:	0800a372 	.word	0x0800a372
 8002934:	0800a38c 	.word	0x0800a38c
 8002938:	0800a3aa 	.word	0x0800a3aa
 800293c:	0800a3cf 	.word	0x0800a3cf
 8002940:	0800a3e9 	.word	0x0800a3e9

08002944 <mem_manage_fault>:
{
 8002944:	e92d 43f8 	stmdb	sp!, {r3, r4, r5, r6, r7, r8, r9, lr}
	if ((SCB->CFSR & SCB_CFSR_MSTKERR_Msk) != 0) {
 8002948:	4d36      	ldr	r5, [pc, #216]	; (8002a24 <mem_manage_fault+0xe0>)
{
 800294a:	4680      	mov	r8, r0
 800294c:	4689      	mov	r9, r1
	PR_FAULT_INFO("***** MPU FAULT *****");
 800294e:	4836      	ldr	r0, [pc, #216]	; (8002a28 <mem_manage_fault+0xe4>)
 8002950:	4936      	ldr	r1, [pc, #216]	; (8002a2c <mem_manage_fault+0xe8>)
{
 8002952:	4617      	mov	r7, r2
	PR_FAULT_INFO("***** MPU FAULT *****");
 8002954:	f004 feb7 	bl	80076c6 <z_log_msg_simple_create_0.constprop.0>
	if ((SCB->CFSR & SCB_CFSR_MSTKERR_Msk) != 0) {
 8002958:	6aab      	ldr	r3, [r5, #40]	; 0x28
 800295a:	06de      	lsls	r6, r3, #27
 800295c:	d527      	bpl.n	80029ae <mem_manage_fault+0x6a>
		reason = K_ERR_ARM_MEM_STACKING;
 800295e:	2411      	movs	r4, #17
		PR_FAULT_INFO("  Stacking error (context area might be"
 8002960:	4933      	ldr	r1, [pc, #204]	; (8002a30 <mem_manage_fault+0xec>)
 8002962:	4831      	ldr	r0, [pc, #196]	; (8002a28 <mem_manage_fault+0xe4>)
 8002964:	f004 feaf 	bl	80076c6 <z_log_msg_simple_create_0.constprop.0>
	if ((SCB->CFSR & SCB_CFSR_MUNSTKERR_Msk) != 0) {
 8002968:	6aab      	ldr	r3, [r5, #40]	; 0x28
 800296a:	071d      	lsls	r5, r3, #28
 800296c:	d504      	bpl.n	8002978 <mem_manage_fault+0x34>
		reason = K_ERR_ARM_MEM_UNSTACKING;
 800296e:	2412      	movs	r4, #18
		PR_FAULT_INFO("  Unstacking error");
 8002970:	4930      	ldr	r1, [pc, #192]	; (8002a34 <mem_manage_fault+0xf0>)
 8002972:	482d      	ldr	r0, [pc, #180]	; (8002a28 <mem_manage_fault+0xe4>)
 8002974:	f004 fea7 	bl	80076c6 <z_log_msg_simple_create_0.constprop.0>
	if ((SCB->CFSR & SCB_CFSR_DACCVIOL_Msk) != 0) {
 8002978:	4d2a      	ldr	r5, [pc, #168]	; (8002a24 <mem_manage_fault+0xe0>)
 800297a:	6aab      	ldr	r3, [r5, #40]	; 0x28
 800297c:	0798      	lsls	r0, r3, #30
 800297e:	d518      	bpl.n	80029b2 <mem_manage_fault+0x6e>
		PR_FAULT_INFO("  Data Access Violation");
 8002980:	492d      	ldr	r1, [pc, #180]	; (8002a38 <mem_manage_fault+0xf4>)
 8002982:	4829      	ldr	r0, [pc, #164]	; (8002a28 <mem_manage_fault+0xe4>)
 8002984:	f004 fe9f 	bl	80076c6 <z_log_msg_simple_create_0.constprop.0>
		uint32_t temp = SCB->MMFAR;
 8002988:	6b6e      	ldr	r6, [r5, #52]	; 0x34
		if ((SCB->CFSR & SCB_CFSR_MMARVALID_Msk) != 0) {
 800298a:	6aab      	ldr	r3, [r5, #40]	; 0x28
 800298c:	0619      	lsls	r1, r3, #24
 800298e:	d546      	bpl.n	8002a1e <mem_manage_fault+0xda>
 8002990:	4a2a      	ldr	r2, [pc, #168]	; (8002a3c <mem_manage_fault+0xf8>)
 8002992:	4633      	mov	r3, r6
 8002994:	2101      	movs	r1, #1
 8002996:	4824      	ldr	r0, [pc, #144]	; (8002a28 <mem_manage_fault+0xe4>)
 8002998:	f004 fe0d 	bl	80075b6 <z_impl_z_log_msg_simple_create_1>
			if (from_hard_fault != 0) {
 800299c:	f1b9 0f00 	cmp.w	r9, #0
 80029a0:	d003      	beq.n	80029aa <mem_manage_fault+0x66>
				SCB->CFSR &= ~SCB_CFSR_MMARVALID_Msk;
 80029a2:	6aab      	ldr	r3, [r5, #40]	; 0x28
 80029a4:	f023 0380 	bic.w	r3, r3, #128	; 0x80
 80029a8:	62ab      	str	r3, [r5, #40]	; 0x28
		reason = K_ERR_ARM_MEM_DATA_ACCESS;
 80029aa:	2413      	movs	r4, #19
 80029ac:	e003      	b.n	80029b6 <mem_manage_fault+0x72>
	uint32_t reason = K_ERR_ARM_MEM_GENERIC;
 80029ae:	2410      	movs	r4, #16
 80029b0:	e7da      	b.n	8002968 <mem_manage_fault+0x24>
	uint32_t mmfar = -EINVAL;
 80029b2:	f06f 0615 	mvn.w	r6, #21
	if ((SCB->CFSR & SCB_CFSR_IACCVIOL_Msk) != 0) {
 80029b6:	4d1b      	ldr	r5, [pc, #108]	; (8002a24 <mem_manage_fault+0xe0>)
 80029b8:	6aab      	ldr	r3, [r5, #40]	; 0x28
 80029ba:	07da      	lsls	r2, r3, #31
 80029bc:	d504      	bpl.n	80029c8 <mem_manage_fault+0x84>
		reason = K_ERR_ARM_MEM_INSTRUCTION_ACCESS;
 80029be:	2414      	movs	r4, #20
		PR_FAULT_INFO("  Instruction Access Violation");
 80029c0:	491f      	ldr	r1, [pc, #124]	; (8002a40 <mem_manage_fault+0xfc>)
 80029c2:	4819      	ldr	r0, [pc, #100]	; (8002a28 <mem_manage_fault+0xe4>)
 80029c4:	f004 fe7f 	bl	80076c6 <z_log_msg_simple_create_0.constprop.0>
	if ((SCB->CFSR & SCB_CFSR_MLSPERR_Msk) != 0) {
 80029c8:	6aab      	ldr	r3, [r5, #40]	; 0x28
 80029ca:	069b      	lsls	r3, r3, #26
 80029cc:	d504      	bpl.n	80029d8 <mem_manage_fault+0x94>
		reason = K_ERR_ARM_MEM_FP_LAZY_STATE_PRESERVATION;
 80029ce:	2415      	movs	r4, #21
		PR_FAULT_INFO("  Floating-point lazy state preservation error");
 80029d0:	491c      	ldr	r1, [pc, #112]	; (8002a44 <mem_manage_fault+0x100>)
 80029d2:	4815      	ldr	r0, [pc, #84]	; (8002a28 <mem_manage_fault+0xe4>)
 80029d4:	f004 fe77 	bl	80076c6 <z_log_msg_simple_create_0.constprop.0>
	if ((SCB->CFSR & SCB_CFSR_MSTKERR_Msk) || (SCB->CFSR & SCB_CFSR_DACCVIOL_Msk)) {
 80029d8:	4b12      	ldr	r3, [pc, #72]	; (8002a24 <mem_manage_fault+0xe0>)
